
kernel/build/kernel.elf:     file format elf64-x86-64


Disassembly of section .bootstrap.text:

0000000000200000 <__bootstrap_phys_start>:
  200000:	fa                   	cli
  200001:	48 bc 00 60 20 00 00 	movabs $0x206000,%rsp
  200008:	00 00 00 
  20000b:	e8 d0 00 00 00       	call   2000e0 <bootstrap_main>

0000000000200010 <_start.hang>:
  200010:	fa                   	cli
  200011:	f4                   	hlt
  200012:	eb fc                	jmp    200010 <_start.hang>

0000000000200014 <enter_higher_half>:
  200014:	48 b8 90 37 00 80 ff 	movabs $0xffffffff80003790,%rax
  20001b:	ff ff ff 
  20001e:	ff e0                	jmp    *%rax

0000000000200020 <get_kernel_main_addr>:
  200020:	48 b8 90 37 00 80 ff 	movabs $0xffffffff80003790,%rax
  200027:	ff ff ff 
  20002a:	c3                   	ret
  20002b:	0f 1f 44 00 00       	nopl   0x0(%rax,%rax,1)

0000000000200030 <boot_serial_write_char>:
  200030:	f3 0f 1e fa          	endbr64
  200034:	ba fd 03 00 00       	mov    $0x3fd,%edx
  200039:	0f 1f 80 00 00 00 00 	nopl   0x0(%rax)
  200040:	ec                   	in     (%dx),%al
  200041:	a8 20                	test   $0x20,%al
  200043:	74 fb                	je     200040 <boot_serial_write_char+0x10>
  200045:	ba f8 03 00 00       	mov    $0x3f8,%edx
  20004a:	89 f8                	mov    %edi,%eax
  20004c:	ee                   	out    %al,(%dx)
  20004d:	c3                   	ret
  20004e:	66 90                	xchg   %ax,%ax

0000000000200050 <serial_write_boot>:
  200050:	f3 0f 1e fa          	endbr64
  200054:	0f b6 37             	movzbl (%rdi),%esi
  200057:	40 84 f6             	test   %sil,%sil
  20005a:	74 31                	je     20008d <serial_write_boot+0x3d>
  20005c:	b9 fd 03 00 00       	mov    $0x3fd,%ecx
  200061:	41 b8 f8 03 00 00    	mov    $0x3f8,%r8d
  200067:	66 0f 1f 84 00 00 00 	nopw   0x0(%rax,%rax,1)
  20006e:	00 00 
  200070:	48 83 c7 01          	add    $0x1,%rdi
  200074:	0f 1f 40 00          	nopl   0x0(%rax)
  200078:	89 ca                	mov    %ecx,%edx
  20007a:	ec                   	in     (%dx),%al
  20007b:	a8 20                	test   $0x20,%al
  20007d:	74 f9                	je     200078 <serial_write_boot+0x28>
  20007f:	89 f0                	mov    %esi,%eax
  200081:	44 89 c2             	mov    %r8d,%edx
  200084:	ee                   	out    %al,(%dx)
  200085:	0f b6 37             	movzbl (%rdi),%esi
  200088:	40 84 f6             	test   %sil,%sil
  20008b:	75 e3                	jne    200070 <serial_write_boot+0x20>
  20008d:	c3                   	ret
  20008e:	66 90                	xchg   %ax,%ax

0000000000200090 <boot_serial_write_hex64>:
  200090:	f3 0f 1e fa          	endbr64
  200094:	b9 3c 00 00 00       	mov    $0x3c,%ecx
  200099:	be fd 03 00 00       	mov    $0x3fd,%esi
  20009e:	41 b9 f8 03 00 00    	mov    $0x3f8,%r9d
  2000a4:	0f 1f 40 00          	nopl   0x0(%rax)
  2000a8:	48 89 fa             	mov    %rdi,%rdx
  2000ab:	48 d3 ea             	shr    %cl,%rdx
  2000ae:	83 e2 0f             	and    $0xf,%edx
  2000b1:	8d 42 30             	lea    0x30(%rdx),%eax
  2000b4:	44 8d 42 57          	lea    0x57(%rdx),%r8d
  2000b8:	80 fa 09             	cmp    $0x9,%dl
  2000bb:	44 0f 46 c0          	cmovbe %eax,%r8d
  2000bf:	90                   	nop
  2000c0:	89 f2                	mov    %esi,%edx
  2000c2:	ec                   	in     (%dx),%al
  2000c3:	a8 20                	test   $0x20,%al
  2000c5:	74 f9                	je     2000c0 <boot_serial_write_hex64+0x30>
  2000c7:	44 89 c0             	mov    %r8d,%eax
  2000ca:	44 89 ca             	mov    %r9d,%edx
  2000cd:	ee                   	out    %al,(%dx)
  2000ce:	83 e9 04             	sub    $0x4,%ecx
  2000d1:	83 f9 fc             	cmp    $0xfffffffc,%ecx
  2000d4:	75 d2                	jne    2000a8 <boot_serial_write_hex64+0x18>
  2000d6:	c3                   	ret
  2000d7:	66 0f 1f 84 00 00 00 	nopw   0x0(%rax,%rax,1)
  2000de:	00 00 

00000000002000e0 <bootstrap_main>:
  2000e0:	f3 0f 1e fa          	endbr64
  2000e4:	55                   	push   %rbp
  2000e5:	48 c7 c2 00 e0 20 00 	mov    $0x20e000,%rdx
  2000ec:	48 c7 c0 00 d0 20 00 	mov    $0x20d000,%rax
  2000f3:	66 0f ef c0          	pxor   %xmm0,%xmm0
  2000f7:	53                   	push   %rbx
  2000f8:	48 89 fb             	mov    %rdi,%rbx
  2000fb:	48 83 ec 08          	sub    $0x8,%rsp
  2000ff:	0f 29 00             	movaps %xmm0,(%rax)
  200102:	48 83 c0 20          	add    $0x20,%rax
  200106:	0f 29 40 f0          	movaps %xmm0,-0x10(%rax)
  20010a:	48 39 c2             	cmp    %rax,%rdx
  20010d:	75 f0                	jne    2000ff <bootstrap_main+0x1f>
  20010f:	48 c7 c2 00 d0 20 00 	mov    $0x20d000,%rdx
  200116:	48 c7 c0 00 c0 20 00 	mov    $0x20c000,%rax
  20011d:	66 0f ef c0          	pxor   %xmm0,%xmm0
  200121:	0f 29 00             	movaps %xmm0,(%rax)
  200124:	48 83 c0 20          	add    $0x20,%rax
  200128:	0f 29 40 f0          	movaps %xmm0,-0x10(%rax)
  20012c:	48 39 c2             	cmp    %rax,%rdx
  20012f:	75 f0                	jne    200121 <bootstrap_main+0x41>
  200131:	48 c7 c0 00 b0 20 00 	mov    $0x20b000,%rax
  200138:	66 0f ef c0          	pxor   %xmm0,%xmm0
  20013c:	0f 29 00             	movaps %xmm0,(%rax)
  20013f:	48 83 c0 20          	add    $0x20,%rax
  200143:	0f 29 40 f0          	movaps %xmm0,-0x10(%rax)
  200147:	48 3d 00 c0 20 00    	cmp    $0x20c000,%rax
  20014d:	75 ed                	jne    20013c <bootstrap_main+0x5c>
  20014f:	48 c7 c2 00 b0 20 00 	mov    $0x20b000,%rdx
  200156:	48 c7 c0 00 a0 20 00 	mov    $0x20a000,%rax
  20015d:	66 0f ef c0          	pxor   %xmm0,%xmm0
  200161:	0f 29 00             	movaps %xmm0,(%rax)
  200164:	48 83 c0 20          	add    $0x20,%rax
  200168:	0f 29 40 f0          	movaps %xmm0,-0x10(%rax)
  20016c:	48 39 c2             	cmp    %rax,%rdx
  20016f:	75 f0                	jne    200161 <bootstrap_main+0x81>
  200171:	48 c7 c0 00 90 20 00 	mov    $0x209000,%rax
  200178:	66 0f ef c0          	pxor   %xmm0,%xmm0
  20017c:	0f 29 00             	movaps %xmm0,(%rax)
  20017f:	48 83 c0 20          	add    $0x20,%rax
  200183:	0f 29 40 f0          	movaps %xmm0,-0x10(%rax)
  200187:	48 3d 00 a0 20 00    	cmp    $0x20a000,%rax
  20018d:	75 ed                	jne    20017c <bootstrap_main+0x9c>
  20018f:	48 c7 c0 00 80 20 00 	mov    $0x208000,%rax
  200196:	66 0f ef c0          	pxor   %xmm0,%xmm0
  20019a:	0f 29 00             	movaps %xmm0,(%rax)
  20019d:	48 83 c0 20          	add    $0x20,%rax
  2001a1:	0f 29 40 f0          	movaps %xmm0,-0x10(%rax)
  2001a5:	48 3d 00 90 20 00    	cmp    $0x209000,%rax
  2001ab:	75 ed                	jne    20019a <bootstrap_main+0xba>
  2001ad:	48 c7 c2 00 80 20 00 	mov    $0x208000,%rdx
  2001b4:	48 c7 c0 00 70 20 00 	mov    $0x207000,%rax
  2001bb:	66 0f ef c0          	pxor   %xmm0,%xmm0
  2001bf:	0f 29 00             	movaps %xmm0,(%rax)
  2001c2:	48 83 c0 20          	add    $0x20,%rax
  2001c6:	0f 29 40 f0          	movaps %xmm0,-0x10(%rax)
  2001ca:	48 39 c2             	cmp    %rax,%rdx
  2001cd:	75 f0                	jne    2001bf <bootstrap_main+0xdf>
  2001cf:	48 c7 c0 00 60 20 00 	mov    $0x206000,%rax
  2001d6:	66 0f ef c0          	pxor   %xmm0,%xmm0
  2001da:	0f 29 00             	movaps %xmm0,(%rax)
  2001dd:	48 83 c0 20          	add    $0x20,%rax
  2001e1:	0f 29 40 f0          	movaps %xmm0,-0x10(%rax)
  2001e5:	48 3d 00 70 20 00    	cmp    $0x207000,%rax
  2001eb:	75 ed                	jne    2001da <bootstrap_main+0xfa>
  2001ed:	48 c7 c7 70 10 20 00 	mov    $0x201070,%rdi
  2001f4:	e8 57 fe ff ff       	call   200050 <serial_write_boot>
  2001f9:	48 b8 00 f0 ff ff ff 	movabs $0xffffffffff000,%rax
  200200:	ff 0f 00 
  200203:	48 89 c2             	mov    %rax,%rdx
  200206:	48 25 00 b0 20 00    	and    $0x20b000,%rax
  20020c:	48 81 e2 00 c0 20 00 	and    $0x20c000,%rdx
  200213:	48 83 c8 03          	or     $0x3,%rax
  200217:	48 83 ca 03          	or     $0x3,%rdx
  20021b:	48 89 05 de bd 00 00 	mov    %rax,0xbdde(%rip)        # 20c000 <g_low_pdpt>
  200222:	31 c0                	xor    %eax,%eax
  200224:	48 89 15 d5 cd 00 00 	mov    %rdx,0xcdd5(%rip)        # 20d000 <g_pml4>
  20022b:	0f 1f 44 00 00       	nopl   0x0(%rax,%rax,1)
  200230:	48 89 c2             	mov    %rax,%rdx
  200233:	48 c1 e2 15          	shl    $0x15,%rdx
  200237:	80 ca 83             	or     $0x83,%dl
  20023a:	48 89 14 c5 00 b0 20 	mov    %rdx,0x20b000(,%rax,8)
  200241:	00 
  200242:	48 83 c0 01          	add    $0x1,%rax
  200246:	48 3d 00 02 00 00    	cmp    $0x200,%rax
  20024c:	75 e2                	jne    200230 <bootstrap_main+0x150>
  20024e:	48 c7 c0 00 00 00 80 	mov    $0xffffffff80000000,%rax
  200255:	48 c7 c5 ff 9f 21 00 	mov    $0x219fff,%rbp
  20025c:	48 ba 00 f0 ff ff ff 	movabs $0xffffffffff000,%rdx
  200263:	ff 0f 00 
  200266:	48 89 c1             	mov    %rax,%rcx
  200269:	48 89 d6             	mov    %rdx,%rsi
  20026c:	48 81 ed 00 e0 20 00 	sub    $0x20e000,%rbp
  200273:	48 c1 e9 27          	shr    $0x27,%rcx
  200277:	48 81 e6 00 a0 20 00 	and    $0x20a000,%rsi
  20027e:	81 e1 ff 01 00 00    	and    $0x1ff,%ecx
  200284:	48 83 ce 03          	or     $0x3,%rsi
  200288:	48 89 34 cd 00 d0 20 	mov    %rsi,0x20d000(,%rcx,8)
  20028f:	00 
  200290:	48 89 c1             	mov    %rax,%rcx
  200293:	48 89 d6             	mov    %rdx,%rsi
  200296:	48 c1 e8 15          	shr    $0x15,%rax
  20029a:	48 c1 e9 1e          	shr    $0x1e,%rcx
  20029e:	48 81 e6 00 90 20 00 	and    $0x209000,%rsi
  2002a5:	25 ff 01 00 00       	and    $0x1ff,%eax
  2002aa:	48 81 e2 00 80 20 00 	and    $0x208000,%rdx
  2002b1:	81 e1 ff 01 00 00    	and    $0x1ff,%ecx
  2002b7:	48 83 ce 03          	or     $0x3,%rsi
  2002bb:	48 83 ca 03          	or     $0x3,%rdx
  2002bf:	48 c1 ed 0c          	shr    $0xc,%rbp
  2002c3:	48 89 34 cd 00 a0 20 	mov    %rsi,0x20a000(,%rcx,8)
  2002ca:	00 
  2002cb:	48 89 14 c5 00 90 20 	mov    %rdx,0x209000(,%rax,8)
  2002d2:	00 
  2002d3:	74 2a                	je     2002ff <bootstrap_main+0x21f>
  2002d5:	48 c7 c2 00 e0 20 00 	mov    $0x20e000,%rdx
  2002dc:	31 c0                	xor    %eax,%eax
  2002de:	66 90                	xchg   %ax,%ax
  2002e0:	48 89 d1             	mov    %rdx,%rcx
  2002e3:	48 81 c2 00 10 00 00 	add    $0x1000,%rdx
  2002ea:	48 83 c9 03          	or     $0x3,%rcx
  2002ee:	48 89 0c c5 00 80 20 	mov    %rcx,0x208000(,%rax,8)
  2002f5:	00 
  2002f6:	48 83 c0 01          	add    $0x1,%rax
  2002fa:	48 39 c5             	cmp    %rax,%rbp
  2002fd:	75 e1                	jne    2002e0 <bootstrap_main+0x200>
  2002ff:	48 b8 00 f0 ff ff ff 	movabs $0xffffffffff000,%rax
  200306:	ff 0f 00 
  200309:	48 89 c2             	mov    %rax,%rdx
  20030c:	48 25 00 60 20 00    	and    $0x206000,%rax
  200312:	48 81 e2 00 70 20 00 	and    $0x207000,%rdx
  200319:	48 83 c8 03          	or     $0x3,%rax
  20031d:	48 83 ca 03          	or     $0x3,%rdx
  200321:	48 89 05 d8 6c 00 00 	mov    %rax,0x6cd8(%rip)        # 207000 <g_hhdm_pdpt>
  200328:	31 c0                	xor    %eax,%eax
  20032a:	48 89 15 cf d4 00 00 	mov    %rdx,0xd4cf(%rip)        # 20d800 <g_pml4+0x800>
  200331:	0f 1f 80 00 00 00 00 	nopl   0x0(%rax)
  200338:	48 89 c2             	mov    %rax,%rdx
  20033b:	48 c1 e2 15          	shl    $0x15,%rdx
  20033f:	80 ca 83             	or     $0x83,%dl
  200342:	48 89 14 c5 00 60 20 	mov    %rdx,0x206000(,%rax,8)
  200349:	00 
  20034a:	48 83 c0 01          	add    $0x1,%rax
  20034e:	48 3d 00 02 00 00    	cmp    $0x200,%rax
  200354:	75 e2                	jne    200338 <bootstrap_main+0x258>
  200356:	48 c7 c7 60 10 20 00 	mov    $0x201060,%rdi
  20035d:	e8 ee fc ff ff       	call   200050 <serial_write_boot>
  200362:	48 c7 c7 00 e0 20 00 	mov    $0x20e000,%rdi
  200369:	e8 22 fd ff ff       	call   200090 <boot_serial_write_hex64>
  20036e:	48 c7 c7 00 10 20 00 	mov    $0x201000,%rdi
  200375:	e8 d6 fc ff ff       	call   200050 <serial_write_boot>
  20037a:	48 c7 c7 50 10 20 00 	mov    $0x201050,%rdi
  200381:	e8 ca fc ff ff       	call   200050 <serial_write_boot>
  200386:	48 c7 c7 00 90 21 00 	mov    $0x219000,%rdi
  20038d:	e8 fe fc ff ff       	call   200090 <boot_serial_write_hex64>
  200392:	48 c7 c7 00 10 20 00 	mov    $0x201000,%rdi
  200399:	e8 b2 fc ff ff       	call   200050 <serial_write_boot>
  20039e:	48 c7 c7 40 10 20 00 	mov    $0x201040,%rdi
  2003a5:	e8 a6 fc ff ff       	call   200050 <serial_write_boot>
  2003aa:	48 c7 c7 00 00 00 80 	mov    $0xffffffff80000000,%rdi
  2003b1:	e8 da fc ff ff       	call   200090 <boot_serial_write_hex64>
  2003b6:	48 c7 c7 00 10 20 00 	mov    $0x201000,%rdi
  2003bd:	e8 8e fc ff ff       	call   200050 <serial_write_boot>
  2003c2:	48 c7 c7 30 10 20 00 	mov    $0x201030,%rdi
  2003c9:	e8 82 fc ff ff       	call   200050 <serial_write_boot>
  2003ce:	48 c7 c7 00 b0 00 80 	mov    $0xffffffff8000b000,%rdi
  2003d5:	e8 b6 fc ff ff       	call   200090 <boot_serial_write_hex64>
  2003da:	48 c7 c7 00 10 20 00 	mov    $0x201000,%rdi
  2003e1:	e8 6a fc ff ff       	call   200050 <serial_write_boot>
  2003e6:	48 c7 c7 28 10 20 00 	mov    $0x201028,%rdi
  2003ed:	e8 5e fc ff ff       	call   200050 <serial_write_boot>
  2003f2:	e8 29 fc ff ff       	call   200020 <get_kernel_main_addr>
  2003f7:	48 89 c7             	mov    %rax,%rdi
  2003fa:	e8 91 fc ff ff       	call   200090 <boot_serial_write_hex64>
  2003ff:	48 c7 c7 00 10 20 00 	mov    $0x201000,%rdi
  200406:	e8 45 fc ff ff       	call   200050 <serial_write_boot>
  20040b:	48 c7 c7 18 10 20 00 	mov    $0x201018,%rdi
  200412:	e8 39 fc ff ff       	call   200050 <serial_write_boot>
  200417:	48 89 ef             	mov    %rbp,%rdi
  20041a:	e8 71 fc ff ff       	call   200090 <boot_serial_write_hex64>
  20041f:	48 c7 c7 00 10 20 00 	mov    $0x201000,%rdi
  200426:	e8 25 fc ff ff       	call   200050 <serial_write_boot>
  20042b:	48 c7 c0 00 d0 20 00 	mov    $0x20d000,%rax
  200432:	0f 22 d8             	mov    %rax,%cr3
  200435:	48 c7 c7 08 10 20 00 	mov    $0x201008,%rdi
  20043c:	e8 0f fc ff ff       	call   200050 <serial_write_boot>
  200441:	48 89 df             	mov    %rbx,%rdi
  200444:	e8 cb fb ff ff       	call   200014 <enter_higher_half>
  200449:	0f 1f 80 00 00 00 00 	nopl   0x0(%rax)
  200450:	fa                   	cli
  200451:	f4                   	hlt
  200452:	eb fc                	jmp    200450 <bootstrap_main+0x370>

Disassembly of section .text:

ffffffff80000000 <__kernel_virt_start>:
ffffffff80000000:	48 89 fc             	mov    %rdi,%rsp
ffffffff80000003:	e9 f8 37 00 00       	jmp    ffffffff80003800 <kernel_main>
ffffffff80000008:	0f 1f 84 00 00 00 00 	nopl   0x0(%rax,%rax,1)
ffffffff8000000f:	00 

ffffffff80000010 <context_switch>:
ffffffff80000010:	53                   	push   %rbx
ffffffff80000011:	55                   	push   %rbp
ffffffff80000012:	41 54                	push   %r12
ffffffff80000014:	41 55                	push   %r13
ffffffff80000016:	41 56                	push   %r14
ffffffff80000018:	41 57                	push   %r15
ffffffff8000001a:	48 89 27             	mov    %rsp,(%rdi)
ffffffff8000001d:	48 89 f4             	mov    %rsi,%rsp
ffffffff80000020:	41 5f                	pop    %r15
ffffffff80000022:	41 5e                	pop    %r14
ffffffff80000024:	41 5d                	pop    %r13
ffffffff80000026:	41 5c                	pop    %r12
ffffffff80000028:	5d                   	pop    %rbp
ffffffff80000029:	5b                   	pop    %rbx
ffffffff8000002a:	c3                   	ret
ffffffff8000002b:	0f 1f 44 00 00       	nopl   0x0(%rax,%rax,1)

ffffffff80000030 <isr0>:
ffffffff80000030:	6a 00                	push   $0x0
ffffffff80000032:	6a 00                	push   $0x0
ffffffff80000034:	41 57                	push   %r15
ffffffff80000036:	41 56                	push   %r14
ffffffff80000038:	41 55                	push   %r13
ffffffff8000003a:	41 54                	push   %r12
ffffffff8000003c:	41 53                	push   %r11
ffffffff8000003e:	41 52                	push   %r10
ffffffff80000040:	41 51                	push   %r9
ffffffff80000042:	41 50                	push   %r8
ffffffff80000044:	55                   	push   %rbp
ffffffff80000045:	57                   	push   %rdi
ffffffff80000046:	56                   	push   %rsi
ffffffff80000047:	52                   	push   %rdx
ffffffff80000048:	51                   	push   %rcx
ffffffff80000049:	53                   	push   %rbx
ffffffff8000004a:	50                   	push   %rax
ffffffff8000004b:	48 89 e7             	mov    %rsp,%rdi
ffffffff8000004e:	e8 ad 41 00 00       	call   ffffffff80004200 <interrupt_dispatch>
ffffffff80000053:	58                   	pop    %rax
ffffffff80000054:	5b                   	pop    %rbx
ffffffff80000055:	59                   	pop    %rcx
ffffffff80000056:	5a                   	pop    %rdx
ffffffff80000057:	5e                   	pop    %rsi
ffffffff80000058:	5f                   	pop    %rdi
ffffffff80000059:	5d                   	pop    %rbp
ffffffff8000005a:	41 58                	pop    %r8
ffffffff8000005c:	41 59                	pop    %r9
ffffffff8000005e:	41 5a                	pop    %r10
ffffffff80000060:	41 5b                	pop    %r11
ffffffff80000062:	41 5c                	pop    %r12
ffffffff80000064:	41 5d                	pop    %r13
ffffffff80000066:	41 5e                	pop    %r14
ffffffff80000068:	41 5f                	pop    %r15
ffffffff8000006a:	48 83 c4 10          	add    $0x10,%rsp
ffffffff8000006e:	48 cf                	iretq

ffffffff80000070 <isr1>:
ffffffff80000070:	6a 00                	push   $0x0
ffffffff80000072:	6a 01                	push   $0x1
ffffffff80000074:	41 57                	push   %r15
ffffffff80000076:	41 56                	push   %r14
ffffffff80000078:	41 55                	push   %r13
ffffffff8000007a:	41 54                	push   %r12
ffffffff8000007c:	41 53                	push   %r11
ffffffff8000007e:	41 52                	push   %r10
ffffffff80000080:	41 51                	push   %r9
ffffffff80000082:	41 50                	push   %r8
ffffffff80000084:	55                   	push   %rbp
ffffffff80000085:	57                   	push   %rdi
ffffffff80000086:	56                   	push   %rsi
ffffffff80000087:	52                   	push   %rdx
ffffffff80000088:	51                   	push   %rcx
ffffffff80000089:	53                   	push   %rbx
ffffffff8000008a:	50                   	push   %rax
ffffffff8000008b:	48 89 e7             	mov    %rsp,%rdi
ffffffff8000008e:	e8 6d 41 00 00       	call   ffffffff80004200 <interrupt_dispatch>
ffffffff80000093:	58                   	pop    %rax
ffffffff80000094:	5b                   	pop    %rbx
ffffffff80000095:	59                   	pop    %rcx
ffffffff80000096:	5a                   	pop    %rdx
ffffffff80000097:	5e                   	pop    %rsi
ffffffff80000098:	5f                   	pop    %rdi
ffffffff80000099:	5d                   	pop    %rbp
ffffffff8000009a:	41 58                	pop    %r8
ffffffff8000009c:	41 59                	pop    %r9
ffffffff8000009e:	41 5a                	pop    %r10
ffffffff800000a0:	41 5b                	pop    %r11
ffffffff800000a2:	41 5c                	pop    %r12
ffffffff800000a4:	41 5d                	pop    %r13
ffffffff800000a6:	41 5e                	pop    %r14
ffffffff800000a8:	41 5f                	pop    %r15
ffffffff800000aa:	48 83 c4 10          	add    $0x10,%rsp
ffffffff800000ae:	48 cf                	iretq

ffffffff800000b0 <isr2>:
ffffffff800000b0:	6a 00                	push   $0x0
ffffffff800000b2:	6a 02                	push   $0x2
ffffffff800000b4:	41 57                	push   %r15
ffffffff800000b6:	41 56                	push   %r14
ffffffff800000b8:	41 55                	push   %r13
ffffffff800000ba:	41 54                	push   %r12
ffffffff800000bc:	41 53                	push   %r11
ffffffff800000be:	41 52                	push   %r10
ffffffff800000c0:	41 51                	push   %r9
ffffffff800000c2:	41 50                	push   %r8
ffffffff800000c4:	55                   	push   %rbp
ffffffff800000c5:	57                   	push   %rdi
ffffffff800000c6:	56                   	push   %rsi
ffffffff800000c7:	52                   	push   %rdx
ffffffff800000c8:	51                   	push   %rcx
ffffffff800000c9:	53                   	push   %rbx
ffffffff800000ca:	50                   	push   %rax
ffffffff800000cb:	48 89 e7             	mov    %rsp,%rdi
ffffffff800000ce:	e8 2d 41 00 00       	call   ffffffff80004200 <interrupt_dispatch>
ffffffff800000d3:	58                   	pop    %rax
ffffffff800000d4:	5b                   	pop    %rbx
ffffffff800000d5:	59                   	pop    %rcx
ffffffff800000d6:	5a                   	pop    %rdx
ffffffff800000d7:	5e                   	pop    %rsi
ffffffff800000d8:	5f                   	pop    %rdi
ffffffff800000d9:	5d                   	pop    %rbp
ffffffff800000da:	41 58                	pop    %r8
ffffffff800000dc:	41 59                	pop    %r9
ffffffff800000de:	41 5a                	pop    %r10
ffffffff800000e0:	41 5b                	pop    %r11
ffffffff800000e2:	41 5c                	pop    %r12
ffffffff800000e4:	41 5d                	pop    %r13
ffffffff800000e6:	41 5e                	pop    %r14
ffffffff800000e8:	41 5f                	pop    %r15
ffffffff800000ea:	48 83 c4 10          	add    $0x10,%rsp
ffffffff800000ee:	48 cf                	iretq

ffffffff800000f0 <isr3>:
ffffffff800000f0:	6a 00                	push   $0x0
ffffffff800000f2:	6a 03                	push   $0x3
ffffffff800000f4:	41 57                	push   %r15
ffffffff800000f6:	41 56                	push   %r14
ffffffff800000f8:	41 55                	push   %r13
ffffffff800000fa:	41 54                	push   %r12
ffffffff800000fc:	41 53                	push   %r11
ffffffff800000fe:	41 52                	push   %r10
ffffffff80000100:	41 51                	push   %r9
ffffffff80000102:	41 50                	push   %r8
ffffffff80000104:	55                   	push   %rbp
ffffffff80000105:	57                   	push   %rdi
ffffffff80000106:	56                   	push   %rsi
ffffffff80000107:	52                   	push   %rdx
ffffffff80000108:	51                   	push   %rcx
ffffffff80000109:	53                   	push   %rbx
ffffffff8000010a:	50                   	push   %rax
ffffffff8000010b:	48 89 e7             	mov    %rsp,%rdi
ffffffff8000010e:	e8 ed 40 00 00       	call   ffffffff80004200 <interrupt_dispatch>
ffffffff80000113:	58                   	pop    %rax
ffffffff80000114:	5b                   	pop    %rbx
ffffffff80000115:	59                   	pop    %rcx
ffffffff80000116:	5a                   	pop    %rdx
ffffffff80000117:	5e                   	pop    %rsi
ffffffff80000118:	5f                   	pop    %rdi
ffffffff80000119:	5d                   	pop    %rbp
ffffffff8000011a:	41 58                	pop    %r8
ffffffff8000011c:	41 59                	pop    %r9
ffffffff8000011e:	41 5a                	pop    %r10
ffffffff80000120:	41 5b                	pop    %r11
ffffffff80000122:	41 5c                	pop    %r12
ffffffff80000124:	41 5d                	pop    %r13
ffffffff80000126:	41 5e                	pop    %r14
ffffffff80000128:	41 5f                	pop    %r15
ffffffff8000012a:	48 83 c4 10          	add    $0x10,%rsp
ffffffff8000012e:	48 cf                	iretq

ffffffff80000130 <isr4>:
ffffffff80000130:	6a 00                	push   $0x0
ffffffff80000132:	6a 04                	push   $0x4
ffffffff80000134:	41 57                	push   %r15
ffffffff80000136:	41 56                	push   %r14
ffffffff80000138:	41 55                	push   %r13
ffffffff8000013a:	41 54                	push   %r12
ffffffff8000013c:	41 53                	push   %r11
ffffffff8000013e:	41 52                	push   %r10
ffffffff80000140:	41 51                	push   %r9
ffffffff80000142:	41 50                	push   %r8
ffffffff80000144:	55                   	push   %rbp
ffffffff80000145:	57                   	push   %rdi
ffffffff80000146:	56                   	push   %rsi
ffffffff80000147:	52                   	push   %rdx
ffffffff80000148:	51                   	push   %rcx
ffffffff80000149:	53                   	push   %rbx
ffffffff8000014a:	50                   	push   %rax
ffffffff8000014b:	48 89 e7             	mov    %rsp,%rdi
ffffffff8000014e:	e8 ad 40 00 00       	call   ffffffff80004200 <interrupt_dispatch>
ffffffff80000153:	58                   	pop    %rax
ffffffff80000154:	5b                   	pop    %rbx
ffffffff80000155:	59                   	pop    %rcx
ffffffff80000156:	5a                   	pop    %rdx
ffffffff80000157:	5e                   	pop    %rsi
ffffffff80000158:	5f                   	pop    %rdi
ffffffff80000159:	5d                   	pop    %rbp
ffffffff8000015a:	41 58                	pop    %r8
ffffffff8000015c:	41 59                	pop    %r9
ffffffff8000015e:	41 5a                	pop    %r10
ffffffff80000160:	41 5b                	pop    %r11
ffffffff80000162:	41 5c                	pop    %r12
ffffffff80000164:	41 5d                	pop    %r13
ffffffff80000166:	41 5e                	pop    %r14
ffffffff80000168:	41 5f                	pop    %r15
ffffffff8000016a:	48 83 c4 10          	add    $0x10,%rsp
ffffffff8000016e:	48 cf                	iretq

ffffffff80000170 <isr5>:
ffffffff80000170:	6a 00                	push   $0x0
ffffffff80000172:	6a 05                	push   $0x5
ffffffff80000174:	41 57                	push   %r15
ffffffff80000176:	41 56                	push   %r14
ffffffff80000178:	41 55                	push   %r13
ffffffff8000017a:	41 54                	push   %r12
ffffffff8000017c:	41 53                	push   %r11
ffffffff8000017e:	41 52                	push   %r10
ffffffff80000180:	41 51                	push   %r9
ffffffff80000182:	41 50                	push   %r8
ffffffff80000184:	55                   	push   %rbp
ffffffff80000185:	57                   	push   %rdi
ffffffff80000186:	56                   	push   %rsi
ffffffff80000187:	52                   	push   %rdx
ffffffff80000188:	51                   	push   %rcx
ffffffff80000189:	53                   	push   %rbx
ffffffff8000018a:	50                   	push   %rax
ffffffff8000018b:	48 89 e7             	mov    %rsp,%rdi
ffffffff8000018e:	e8 6d 40 00 00       	call   ffffffff80004200 <interrupt_dispatch>
ffffffff80000193:	58                   	pop    %rax
ffffffff80000194:	5b                   	pop    %rbx
ffffffff80000195:	59                   	pop    %rcx
ffffffff80000196:	5a                   	pop    %rdx
ffffffff80000197:	5e                   	pop    %rsi
ffffffff80000198:	5f                   	pop    %rdi
ffffffff80000199:	5d                   	pop    %rbp
ffffffff8000019a:	41 58                	pop    %r8
ffffffff8000019c:	41 59                	pop    %r9
ffffffff8000019e:	41 5a                	pop    %r10
ffffffff800001a0:	41 5b                	pop    %r11
ffffffff800001a2:	41 5c                	pop    %r12
ffffffff800001a4:	41 5d                	pop    %r13
ffffffff800001a6:	41 5e                	pop    %r14
ffffffff800001a8:	41 5f                	pop    %r15
ffffffff800001aa:	48 83 c4 10          	add    $0x10,%rsp
ffffffff800001ae:	48 cf                	iretq

ffffffff800001b0 <isr6>:
ffffffff800001b0:	6a 00                	push   $0x0
ffffffff800001b2:	6a 06                	push   $0x6
ffffffff800001b4:	41 57                	push   %r15
ffffffff800001b6:	41 56                	push   %r14
ffffffff800001b8:	41 55                	push   %r13
ffffffff800001ba:	41 54                	push   %r12
ffffffff800001bc:	41 53                	push   %r11
ffffffff800001be:	41 52                	push   %r10
ffffffff800001c0:	41 51                	push   %r9
ffffffff800001c2:	41 50                	push   %r8
ffffffff800001c4:	55                   	push   %rbp
ffffffff800001c5:	57                   	push   %rdi
ffffffff800001c6:	56                   	push   %rsi
ffffffff800001c7:	52                   	push   %rdx
ffffffff800001c8:	51                   	push   %rcx
ffffffff800001c9:	53                   	push   %rbx
ffffffff800001ca:	50                   	push   %rax
ffffffff800001cb:	48 89 e7             	mov    %rsp,%rdi
ffffffff800001ce:	e8 2d 40 00 00       	call   ffffffff80004200 <interrupt_dispatch>
ffffffff800001d3:	58                   	pop    %rax
ffffffff800001d4:	5b                   	pop    %rbx
ffffffff800001d5:	59                   	pop    %rcx
ffffffff800001d6:	5a                   	pop    %rdx
ffffffff800001d7:	5e                   	pop    %rsi
ffffffff800001d8:	5f                   	pop    %rdi
ffffffff800001d9:	5d                   	pop    %rbp
ffffffff800001da:	41 58                	pop    %r8
ffffffff800001dc:	41 59                	pop    %r9
ffffffff800001de:	41 5a                	pop    %r10
ffffffff800001e0:	41 5b                	pop    %r11
ffffffff800001e2:	41 5c                	pop    %r12
ffffffff800001e4:	41 5d                	pop    %r13
ffffffff800001e6:	41 5e                	pop    %r14
ffffffff800001e8:	41 5f                	pop    %r15
ffffffff800001ea:	48 83 c4 10          	add    $0x10,%rsp
ffffffff800001ee:	48 cf                	iretq

ffffffff800001f0 <isr7>:
ffffffff800001f0:	6a 00                	push   $0x0
ffffffff800001f2:	6a 07                	push   $0x7
ffffffff800001f4:	41 57                	push   %r15
ffffffff800001f6:	41 56                	push   %r14
ffffffff800001f8:	41 55                	push   %r13
ffffffff800001fa:	41 54                	push   %r12
ffffffff800001fc:	41 53                	push   %r11
ffffffff800001fe:	41 52                	push   %r10
ffffffff80000200:	41 51                	push   %r9
ffffffff80000202:	41 50                	push   %r8
ffffffff80000204:	55                   	push   %rbp
ffffffff80000205:	57                   	push   %rdi
ffffffff80000206:	56                   	push   %rsi
ffffffff80000207:	52                   	push   %rdx
ffffffff80000208:	51                   	push   %rcx
ffffffff80000209:	53                   	push   %rbx
ffffffff8000020a:	50                   	push   %rax
ffffffff8000020b:	48 89 e7             	mov    %rsp,%rdi
ffffffff8000020e:	e8 ed 3f 00 00       	call   ffffffff80004200 <interrupt_dispatch>
ffffffff80000213:	58                   	pop    %rax
ffffffff80000214:	5b                   	pop    %rbx
ffffffff80000215:	59                   	pop    %rcx
ffffffff80000216:	5a                   	pop    %rdx
ffffffff80000217:	5e                   	pop    %rsi
ffffffff80000218:	5f                   	pop    %rdi
ffffffff80000219:	5d                   	pop    %rbp
ffffffff8000021a:	41 58                	pop    %r8
ffffffff8000021c:	41 59                	pop    %r9
ffffffff8000021e:	41 5a                	pop    %r10
ffffffff80000220:	41 5b                	pop    %r11
ffffffff80000222:	41 5c                	pop    %r12
ffffffff80000224:	41 5d                	pop    %r13
ffffffff80000226:	41 5e                	pop    %r14
ffffffff80000228:	41 5f                	pop    %r15
ffffffff8000022a:	48 83 c4 10          	add    $0x10,%rsp
ffffffff8000022e:	48 cf                	iretq

ffffffff80000230 <isr8>:
ffffffff80000230:	6a 08                	push   $0x8
ffffffff80000232:	41 57                	push   %r15
ffffffff80000234:	41 56                	push   %r14
ffffffff80000236:	41 55                	push   %r13
ffffffff80000238:	41 54                	push   %r12
ffffffff8000023a:	41 53                	push   %r11
ffffffff8000023c:	41 52                	push   %r10
ffffffff8000023e:	41 51                	push   %r9
ffffffff80000240:	41 50                	push   %r8
ffffffff80000242:	55                   	push   %rbp
ffffffff80000243:	57                   	push   %rdi
ffffffff80000244:	56                   	push   %rsi
ffffffff80000245:	52                   	push   %rdx
ffffffff80000246:	51                   	push   %rcx
ffffffff80000247:	53                   	push   %rbx
ffffffff80000248:	50                   	push   %rax
ffffffff80000249:	48 89 e7             	mov    %rsp,%rdi
ffffffff8000024c:	e8 af 3f 00 00       	call   ffffffff80004200 <interrupt_dispatch>
ffffffff80000251:	58                   	pop    %rax
ffffffff80000252:	5b                   	pop    %rbx
ffffffff80000253:	59                   	pop    %rcx
ffffffff80000254:	5a                   	pop    %rdx
ffffffff80000255:	5e                   	pop    %rsi
ffffffff80000256:	5f                   	pop    %rdi
ffffffff80000257:	5d                   	pop    %rbp
ffffffff80000258:	41 58                	pop    %r8
ffffffff8000025a:	41 59                	pop    %r9
ffffffff8000025c:	41 5a                	pop    %r10
ffffffff8000025e:	41 5b                	pop    %r11
ffffffff80000260:	41 5c                	pop    %r12
ffffffff80000262:	41 5d                	pop    %r13
ffffffff80000264:	41 5e                	pop    %r14
ffffffff80000266:	41 5f                	pop    %r15
ffffffff80000268:	48 83 c4 10          	add    $0x10,%rsp
ffffffff8000026c:	48 cf                	iretq

ffffffff8000026e <isr9>:
ffffffff8000026e:	6a 00                	push   $0x0
ffffffff80000270:	6a 09                	push   $0x9
ffffffff80000272:	41 57                	push   %r15
ffffffff80000274:	41 56                	push   %r14
ffffffff80000276:	41 55                	push   %r13
ffffffff80000278:	41 54                	push   %r12
ffffffff8000027a:	41 53                	push   %r11
ffffffff8000027c:	41 52                	push   %r10
ffffffff8000027e:	41 51                	push   %r9
ffffffff80000280:	41 50                	push   %r8
ffffffff80000282:	55                   	push   %rbp
ffffffff80000283:	57                   	push   %rdi
ffffffff80000284:	56                   	push   %rsi
ffffffff80000285:	52                   	push   %rdx
ffffffff80000286:	51                   	push   %rcx
ffffffff80000287:	53                   	push   %rbx
ffffffff80000288:	50                   	push   %rax
ffffffff80000289:	48 89 e7             	mov    %rsp,%rdi
ffffffff8000028c:	e8 6f 3f 00 00       	call   ffffffff80004200 <interrupt_dispatch>
ffffffff80000291:	58                   	pop    %rax
ffffffff80000292:	5b                   	pop    %rbx
ffffffff80000293:	59                   	pop    %rcx
ffffffff80000294:	5a                   	pop    %rdx
ffffffff80000295:	5e                   	pop    %rsi
ffffffff80000296:	5f                   	pop    %rdi
ffffffff80000297:	5d                   	pop    %rbp
ffffffff80000298:	41 58                	pop    %r8
ffffffff8000029a:	41 59                	pop    %r9
ffffffff8000029c:	41 5a                	pop    %r10
ffffffff8000029e:	41 5b                	pop    %r11
ffffffff800002a0:	41 5c                	pop    %r12
ffffffff800002a2:	41 5d                	pop    %r13
ffffffff800002a4:	41 5e                	pop    %r14
ffffffff800002a6:	41 5f                	pop    %r15
ffffffff800002a8:	48 83 c4 10          	add    $0x10,%rsp
ffffffff800002ac:	48 cf                	iretq

ffffffff800002ae <isr10>:
ffffffff800002ae:	6a 0a                	push   $0xa
ffffffff800002b0:	41 57                	push   %r15
ffffffff800002b2:	41 56                	push   %r14
ffffffff800002b4:	41 55                	push   %r13
ffffffff800002b6:	41 54                	push   %r12
ffffffff800002b8:	41 53                	push   %r11
ffffffff800002ba:	41 52                	push   %r10
ffffffff800002bc:	41 51                	push   %r9
ffffffff800002be:	41 50                	push   %r8
ffffffff800002c0:	55                   	push   %rbp
ffffffff800002c1:	57                   	push   %rdi
ffffffff800002c2:	56                   	push   %rsi
ffffffff800002c3:	52                   	push   %rdx
ffffffff800002c4:	51                   	push   %rcx
ffffffff800002c5:	53                   	push   %rbx
ffffffff800002c6:	50                   	push   %rax
ffffffff800002c7:	48 89 e7             	mov    %rsp,%rdi
ffffffff800002ca:	e8 31 3f 00 00       	call   ffffffff80004200 <interrupt_dispatch>
ffffffff800002cf:	58                   	pop    %rax
ffffffff800002d0:	5b                   	pop    %rbx
ffffffff800002d1:	59                   	pop    %rcx
ffffffff800002d2:	5a                   	pop    %rdx
ffffffff800002d3:	5e                   	pop    %rsi
ffffffff800002d4:	5f                   	pop    %rdi
ffffffff800002d5:	5d                   	pop    %rbp
ffffffff800002d6:	41 58                	pop    %r8
ffffffff800002d8:	41 59                	pop    %r9
ffffffff800002da:	41 5a                	pop    %r10
ffffffff800002dc:	41 5b                	pop    %r11
ffffffff800002de:	41 5c                	pop    %r12
ffffffff800002e0:	41 5d                	pop    %r13
ffffffff800002e2:	41 5e                	pop    %r14
ffffffff800002e4:	41 5f                	pop    %r15
ffffffff800002e6:	48 83 c4 10          	add    $0x10,%rsp
ffffffff800002ea:	48 cf                	iretq

ffffffff800002ec <isr11>:
ffffffff800002ec:	6a 0b                	push   $0xb
ffffffff800002ee:	41 57                	push   %r15
ffffffff800002f0:	41 56                	push   %r14
ffffffff800002f2:	41 55                	push   %r13
ffffffff800002f4:	41 54                	push   %r12
ffffffff800002f6:	41 53                	push   %r11
ffffffff800002f8:	41 52                	push   %r10
ffffffff800002fa:	41 51                	push   %r9
ffffffff800002fc:	41 50                	push   %r8
ffffffff800002fe:	55                   	push   %rbp
ffffffff800002ff:	57                   	push   %rdi
ffffffff80000300:	56                   	push   %rsi
ffffffff80000301:	52                   	push   %rdx
ffffffff80000302:	51                   	push   %rcx
ffffffff80000303:	53                   	push   %rbx
ffffffff80000304:	50                   	push   %rax
ffffffff80000305:	48 89 e7             	mov    %rsp,%rdi
ffffffff80000308:	e8 f3 3e 00 00       	call   ffffffff80004200 <interrupt_dispatch>
ffffffff8000030d:	58                   	pop    %rax
ffffffff8000030e:	5b                   	pop    %rbx
ffffffff8000030f:	59                   	pop    %rcx
ffffffff80000310:	5a                   	pop    %rdx
ffffffff80000311:	5e                   	pop    %rsi
ffffffff80000312:	5f                   	pop    %rdi
ffffffff80000313:	5d                   	pop    %rbp
ffffffff80000314:	41 58                	pop    %r8
ffffffff80000316:	41 59                	pop    %r9
ffffffff80000318:	41 5a                	pop    %r10
ffffffff8000031a:	41 5b                	pop    %r11
ffffffff8000031c:	41 5c                	pop    %r12
ffffffff8000031e:	41 5d                	pop    %r13
ffffffff80000320:	41 5e                	pop    %r14
ffffffff80000322:	41 5f                	pop    %r15
ffffffff80000324:	48 83 c4 10          	add    $0x10,%rsp
ffffffff80000328:	48 cf                	iretq

ffffffff8000032a <isr12>:
ffffffff8000032a:	6a 0c                	push   $0xc
ffffffff8000032c:	41 57                	push   %r15
ffffffff8000032e:	41 56                	push   %r14
ffffffff80000330:	41 55                	push   %r13
ffffffff80000332:	41 54                	push   %r12
ffffffff80000334:	41 53                	push   %r11
ffffffff80000336:	41 52                	push   %r10
ffffffff80000338:	41 51                	push   %r9
ffffffff8000033a:	41 50                	push   %r8
ffffffff8000033c:	55                   	push   %rbp
ffffffff8000033d:	57                   	push   %rdi
ffffffff8000033e:	56                   	push   %rsi
ffffffff8000033f:	52                   	push   %rdx
ffffffff80000340:	51                   	push   %rcx
ffffffff80000341:	53                   	push   %rbx
ffffffff80000342:	50                   	push   %rax
ffffffff80000343:	48 89 e7             	mov    %rsp,%rdi
ffffffff80000346:	e8 b5 3e 00 00       	call   ffffffff80004200 <interrupt_dispatch>
ffffffff8000034b:	58                   	pop    %rax
ffffffff8000034c:	5b                   	pop    %rbx
ffffffff8000034d:	59                   	pop    %rcx
ffffffff8000034e:	5a                   	pop    %rdx
ffffffff8000034f:	5e                   	pop    %rsi
ffffffff80000350:	5f                   	pop    %rdi
ffffffff80000351:	5d                   	pop    %rbp
ffffffff80000352:	41 58                	pop    %r8
ffffffff80000354:	41 59                	pop    %r9
ffffffff80000356:	41 5a                	pop    %r10
ffffffff80000358:	41 5b                	pop    %r11
ffffffff8000035a:	41 5c                	pop    %r12
ffffffff8000035c:	41 5d                	pop    %r13
ffffffff8000035e:	41 5e                	pop    %r14
ffffffff80000360:	41 5f                	pop    %r15
ffffffff80000362:	48 83 c4 10          	add    $0x10,%rsp
ffffffff80000366:	48 cf                	iretq

ffffffff80000368 <isr13>:
ffffffff80000368:	6a 0d                	push   $0xd
ffffffff8000036a:	41 57                	push   %r15
ffffffff8000036c:	41 56                	push   %r14
ffffffff8000036e:	41 55                	push   %r13
ffffffff80000370:	41 54                	push   %r12
ffffffff80000372:	41 53                	push   %r11
ffffffff80000374:	41 52                	push   %r10
ffffffff80000376:	41 51                	push   %r9
ffffffff80000378:	41 50                	push   %r8
ffffffff8000037a:	55                   	push   %rbp
ffffffff8000037b:	57                   	push   %rdi
ffffffff8000037c:	56                   	push   %rsi
ffffffff8000037d:	52                   	push   %rdx
ffffffff8000037e:	51                   	push   %rcx
ffffffff8000037f:	53                   	push   %rbx
ffffffff80000380:	50                   	push   %rax
ffffffff80000381:	48 89 e7             	mov    %rsp,%rdi
ffffffff80000384:	e8 77 3e 00 00       	call   ffffffff80004200 <interrupt_dispatch>
ffffffff80000389:	58                   	pop    %rax
ffffffff8000038a:	5b                   	pop    %rbx
ffffffff8000038b:	59                   	pop    %rcx
ffffffff8000038c:	5a                   	pop    %rdx
ffffffff8000038d:	5e                   	pop    %rsi
ffffffff8000038e:	5f                   	pop    %rdi
ffffffff8000038f:	5d                   	pop    %rbp
ffffffff80000390:	41 58                	pop    %r8
ffffffff80000392:	41 59                	pop    %r9
ffffffff80000394:	41 5a                	pop    %r10
ffffffff80000396:	41 5b                	pop    %r11
ffffffff80000398:	41 5c                	pop    %r12
ffffffff8000039a:	41 5d                	pop    %r13
ffffffff8000039c:	41 5e                	pop    %r14
ffffffff8000039e:	41 5f                	pop    %r15
ffffffff800003a0:	48 83 c4 10          	add    $0x10,%rsp
ffffffff800003a4:	48 cf                	iretq

ffffffff800003a6 <isr14>:
ffffffff800003a6:	6a 0e                	push   $0xe
ffffffff800003a8:	41 57                	push   %r15
ffffffff800003aa:	41 56                	push   %r14
ffffffff800003ac:	41 55                	push   %r13
ffffffff800003ae:	41 54                	push   %r12
ffffffff800003b0:	41 53                	push   %r11
ffffffff800003b2:	41 52                	push   %r10
ffffffff800003b4:	41 51                	push   %r9
ffffffff800003b6:	41 50                	push   %r8
ffffffff800003b8:	55                   	push   %rbp
ffffffff800003b9:	57                   	push   %rdi
ffffffff800003ba:	56                   	push   %rsi
ffffffff800003bb:	52                   	push   %rdx
ffffffff800003bc:	51                   	push   %rcx
ffffffff800003bd:	53                   	push   %rbx
ffffffff800003be:	50                   	push   %rax
ffffffff800003bf:	48 89 e7             	mov    %rsp,%rdi
ffffffff800003c2:	e8 39 3e 00 00       	call   ffffffff80004200 <interrupt_dispatch>
ffffffff800003c7:	58                   	pop    %rax
ffffffff800003c8:	5b                   	pop    %rbx
ffffffff800003c9:	59                   	pop    %rcx
ffffffff800003ca:	5a                   	pop    %rdx
ffffffff800003cb:	5e                   	pop    %rsi
ffffffff800003cc:	5f                   	pop    %rdi
ffffffff800003cd:	5d                   	pop    %rbp
ffffffff800003ce:	41 58                	pop    %r8
ffffffff800003d0:	41 59                	pop    %r9
ffffffff800003d2:	41 5a                	pop    %r10
ffffffff800003d4:	41 5b                	pop    %r11
ffffffff800003d6:	41 5c                	pop    %r12
ffffffff800003d8:	41 5d                	pop    %r13
ffffffff800003da:	41 5e                	pop    %r14
ffffffff800003dc:	41 5f                	pop    %r15
ffffffff800003de:	48 83 c4 10          	add    $0x10,%rsp
ffffffff800003e2:	48 cf                	iretq

ffffffff800003e4 <isr15>:
ffffffff800003e4:	6a 00                	push   $0x0
ffffffff800003e6:	6a 0f                	push   $0xf
ffffffff800003e8:	41 57                	push   %r15
ffffffff800003ea:	41 56                	push   %r14
ffffffff800003ec:	41 55                	push   %r13
ffffffff800003ee:	41 54                	push   %r12
ffffffff800003f0:	41 53                	push   %r11
ffffffff800003f2:	41 52                	push   %r10
ffffffff800003f4:	41 51                	push   %r9
ffffffff800003f6:	41 50                	push   %r8
ffffffff800003f8:	55                   	push   %rbp
ffffffff800003f9:	57                   	push   %rdi
ffffffff800003fa:	56                   	push   %rsi
ffffffff800003fb:	52                   	push   %rdx
ffffffff800003fc:	51                   	push   %rcx
ffffffff800003fd:	53                   	push   %rbx
ffffffff800003fe:	50                   	push   %rax
ffffffff800003ff:	48 89 e7             	mov    %rsp,%rdi
ffffffff80000402:	e8 f9 3d 00 00       	call   ffffffff80004200 <interrupt_dispatch>
ffffffff80000407:	58                   	pop    %rax
ffffffff80000408:	5b                   	pop    %rbx
ffffffff80000409:	59                   	pop    %rcx
ffffffff8000040a:	5a                   	pop    %rdx
ffffffff8000040b:	5e                   	pop    %rsi
ffffffff8000040c:	5f                   	pop    %rdi
ffffffff8000040d:	5d                   	pop    %rbp
ffffffff8000040e:	41 58                	pop    %r8
ffffffff80000410:	41 59                	pop    %r9
ffffffff80000412:	41 5a                	pop    %r10
ffffffff80000414:	41 5b                	pop    %r11
ffffffff80000416:	41 5c                	pop    %r12
ffffffff80000418:	41 5d                	pop    %r13
ffffffff8000041a:	41 5e                	pop    %r14
ffffffff8000041c:	41 5f                	pop    %r15
ffffffff8000041e:	48 83 c4 10          	add    $0x10,%rsp
ffffffff80000422:	48 cf                	iretq

ffffffff80000424 <isr16>:
ffffffff80000424:	6a 00                	push   $0x0
ffffffff80000426:	6a 10                	push   $0x10
ffffffff80000428:	41 57                	push   %r15
ffffffff8000042a:	41 56                	push   %r14
ffffffff8000042c:	41 55                	push   %r13
ffffffff8000042e:	41 54                	push   %r12
ffffffff80000430:	41 53                	push   %r11
ffffffff80000432:	41 52                	push   %r10
ffffffff80000434:	41 51                	push   %r9
ffffffff80000436:	41 50                	push   %r8
ffffffff80000438:	55                   	push   %rbp
ffffffff80000439:	57                   	push   %rdi
ffffffff8000043a:	56                   	push   %rsi
ffffffff8000043b:	52                   	push   %rdx
ffffffff8000043c:	51                   	push   %rcx
ffffffff8000043d:	53                   	push   %rbx
ffffffff8000043e:	50                   	push   %rax
ffffffff8000043f:	48 89 e7             	mov    %rsp,%rdi
ffffffff80000442:	e8 b9 3d 00 00       	call   ffffffff80004200 <interrupt_dispatch>
ffffffff80000447:	58                   	pop    %rax
ffffffff80000448:	5b                   	pop    %rbx
ffffffff80000449:	59                   	pop    %rcx
ffffffff8000044a:	5a                   	pop    %rdx
ffffffff8000044b:	5e                   	pop    %rsi
ffffffff8000044c:	5f                   	pop    %rdi
ffffffff8000044d:	5d                   	pop    %rbp
ffffffff8000044e:	41 58                	pop    %r8
ffffffff80000450:	41 59                	pop    %r9
ffffffff80000452:	41 5a                	pop    %r10
ffffffff80000454:	41 5b                	pop    %r11
ffffffff80000456:	41 5c                	pop    %r12
ffffffff80000458:	41 5d                	pop    %r13
ffffffff8000045a:	41 5e                	pop    %r14
ffffffff8000045c:	41 5f                	pop    %r15
ffffffff8000045e:	48 83 c4 10          	add    $0x10,%rsp
ffffffff80000462:	48 cf                	iretq

ffffffff80000464 <isr17>:
ffffffff80000464:	6a 11                	push   $0x11
ffffffff80000466:	41 57                	push   %r15
ffffffff80000468:	41 56                	push   %r14
ffffffff8000046a:	41 55                	push   %r13
ffffffff8000046c:	41 54                	push   %r12
ffffffff8000046e:	41 53                	push   %r11
ffffffff80000470:	41 52                	push   %r10
ffffffff80000472:	41 51                	push   %r9
ffffffff80000474:	41 50                	push   %r8
ffffffff80000476:	55                   	push   %rbp
ffffffff80000477:	57                   	push   %rdi
ffffffff80000478:	56                   	push   %rsi
ffffffff80000479:	52                   	push   %rdx
ffffffff8000047a:	51                   	push   %rcx
ffffffff8000047b:	53                   	push   %rbx
ffffffff8000047c:	50                   	push   %rax
ffffffff8000047d:	48 89 e7             	mov    %rsp,%rdi
ffffffff80000480:	e8 7b 3d 00 00       	call   ffffffff80004200 <interrupt_dispatch>
ffffffff80000485:	58                   	pop    %rax
ffffffff80000486:	5b                   	pop    %rbx
ffffffff80000487:	59                   	pop    %rcx
ffffffff80000488:	5a                   	pop    %rdx
ffffffff80000489:	5e                   	pop    %rsi
ffffffff8000048a:	5f                   	pop    %rdi
ffffffff8000048b:	5d                   	pop    %rbp
ffffffff8000048c:	41 58                	pop    %r8
ffffffff8000048e:	41 59                	pop    %r9
ffffffff80000490:	41 5a                	pop    %r10
ffffffff80000492:	41 5b                	pop    %r11
ffffffff80000494:	41 5c                	pop    %r12
ffffffff80000496:	41 5d                	pop    %r13
ffffffff80000498:	41 5e                	pop    %r14
ffffffff8000049a:	41 5f                	pop    %r15
ffffffff8000049c:	48 83 c4 10          	add    $0x10,%rsp
ffffffff800004a0:	48 cf                	iretq

ffffffff800004a2 <isr18>:
ffffffff800004a2:	6a 00                	push   $0x0
ffffffff800004a4:	6a 12                	push   $0x12
ffffffff800004a6:	41 57                	push   %r15
ffffffff800004a8:	41 56                	push   %r14
ffffffff800004aa:	41 55                	push   %r13
ffffffff800004ac:	41 54                	push   %r12
ffffffff800004ae:	41 53                	push   %r11
ffffffff800004b0:	41 52                	push   %r10
ffffffff800004b2:	41 51                	push   %r9
ffffffff800004b4:	41 50                	push   %r8
ffffffff800004b6:	55                   	push   %rbp
ffffffff800004b7:	57                   	push   %rdi
ffffffff800004b8:	56                   	push   %rsi
ffffffff800004b9:	52                   	push   %rdx
ffffffff800004ba:	51                   	push   %rcx
ffffffff800004bb:	53                   	push   %rbx
ffffffff800004bc:	50                   	push   %rax
ffffffff800004bd:	48 89 e7             	mov    %rsp,%rdi
ffffffff800004c0:	e8 3b 3d 00 00       	call   ffffffff80004200 <interrupt_dispatch>
ffffffff800004c5:	58                   	pop    %rax
ffffffff800004c6:	5b                   	pop    %rbx
ffffffff800004c7:	59                   	pop    %rcx
ffffffff800004c8:	5a                   	pop    %rdx
ffffffff800004c9:	5e                   	pop    %rsi
ffffffff800004ca:	5f                   	pop    %rdi
ffffffff800004cb:	5d                   	pop    %rbp
ffffffff800004cc:	41 58                	pop    %r8
ffffffff800004ce:	41 59                	pop    %r9
ffffffff800004d0:	41 5a                	pop    %r10
ffffffff800004d2:	41 5b                	pop    %r11
ffffffff800004d4:	41 5c                	pop    %r12
ffffffff800004d6:	41 5d                	pop    %r13
ffffffff800004d8:	41 5e                	pop    %r14
ffffffff800004da:	41 5f                	pop    %r15
ffffffff800004dc:	48 83 c4 10          	add    $0x10,%rsp
ffffffff800004e0:	48 cf                	iretq

ffffffff800004e2 <isr19>:
ffffffff800004e2:	6a 00                	push   $0x0
ffffffff800004e4:	6a 13                	push   $0x13
ffffffff800004e6:	41 57                	push   %r15
ffffffff800004e8:	41 56                	push   %r14
ffffffff800004ea:	41 55                	push   %r13
ffffffff800004ec:	41 54                	push   %r12
ffffffff800004ee:	41 53                	push   %r11
ffffffff800004f0:	41 52                	push   %r10
ffffffff800004f2:	41 51                	push   %r9
ffffffff800004f4:	41 50                	push   %r8
ffffffff800004f6:	55                   	push   %rbp
ffffffff800004f7:	57                   	push   %rdi
ffffffff800004f8:	56                   	push   %rsi
ffffffff800004f9:	52                   	push   %rdx
ffffffff800004fa:	51                   	push   %rcx
ffffffff800004fb:	53                   	push   %rbx
ffffffff800004fc:	50                   	push   %rax
ffffffff800004fd:	48 89 e7             	mov    %rsp,%rdi
ffffffff80000500:	e8 fb 3c 00 00       	call   ffffffff80004200 <interrupt_dispatch>
ffffffff80000505:	58                   	pop    %rax
ffffffff80000506:	5b                   	pop    %rbx
ffffffff80000507:	59                   	pop    %rcx
ffffffff80000508:	5a                   	pop    %rdx
ffffffff80000509:	5e                   	pop    %rsi
ffffffff8000050a:	5f                   	pop    %rdi
ffffffff8000050b:	5d                   	pop    %rbp
ffffffff8000050c:	41 58                	pop    %r8
ffffffff8000050e:	41 59                	pop    %r9
ffffffff80000510:	41 5a                	pop    %r10
ffffffff80000512:	41 5b                	pop    %r11
ffffffff80000514:	41 5c                	pop    %r12
ffffffff80000516:	41 5d                	pop    %r13
ffffffff80000518:	41 5e                	pop    %r14
ffffffff8000051a:	41 5f                	pop    %r15
ffffffff8000051c:	48 83 c4 10          	add    $0x10,%rsp
ffffffff80000520:	48 cf                	iretq

ffffffff80000522 <isr20>:
ffffffff80000522:	6a 00                	push   $0x0
ffffffff80000524:	6a 14                	push   $0x14
ffffffff80000526:	41 57                	push   %r15
ffffffff80000528:	41 56                	push   %r14
ffffffff8000052a:	41 55                	push   %r13
ffffffff8000052c:	41 54                	push   %r12
ffffffff8000052e:	41 53                	push   %r11
ffffffff80000530:	41 52                	push   %r10
ffffffff80000532:	41 51                	push   %r9
ffffffff80000534:	41 50                	push   %r8
ffffffff80000536:	55                   	push   %rbp
ffffffff80000537:	57                   	push   %rdi
ffffffff80000538:	56                   	push   %rsi
ffffffff80000539:	52                   	push   %rdx
ffffffff8000053a:	51                   	push   %rcx
ffffffff8000053b:	53                   	push   %rbx
ffffffff8000053c:	50                   	push   %rax
ffffffff8000053d:	48 89 e7             	mov    %rsp,%rdi
ffffffff80000540:	e8 bb 3c 00 00       	call   ffffffff80004200 <interrupt_dispatch>
ffffffff80000545:	58                   	pop    %rax
ffffffff80000546:	5b                   	pop    %rbx
ffffffff80000547:	59                   	pop    %rcx
ffffffff80000548:	5a                   	pop    %rdx
ffffffff80000549:	5e                   	pop    %rsi
ffffffff8000054a:	5f                   	pop    %rdi
ffffffff8000054b:	5d                   	pop    %rbp
ffffffff8000054c:	41 58                	pop    %r8
ffffffff8000054e:	41 59                	pop    %r9
ffffffff80000550:	41 5a                	pop    %r10
ffffffff80000552:	41 5b                	pop    %r11
ffffffff80000554:	41 5c                	pop    %r12
ffffffff80000556:	41 5d                	pop    %r13
ffffffff80000558:	41 5e                	pop    %r14
ffffffff8000055a:	41 5f                	pop    %r15
ffffffff8000055c:	48 83 c4 10          	add    $0x10,%rsp
ffffffff80000560:	48 cf                	iretq

ffffffff80000562 <isr21>:
ffffffff80000562:	6a 15                	push   $0x15
ffffffff80000564:	41 57                	push   %r15
ffffffff80000566:	41 56                	push   %r14
ffffffff80000568:	41 55                	push   %r13
ffffffff8000056a:	41 54                	push   %r12
ffffffff8000056c:	41 53                	push   %r11
ffffffff8000056e:	41 52                	push   %r10
ffffffff80000570:	41 51                	push   %r9
ffffffff80000572:	41 50                	push   %r8
ffffffff80000574:	55                   	push   %rbp
ffffffff80000575:	57                   	push   %rdi
ffffffff80000576:	56                   	push   %rsi
ffffffff80000577:	52                   	push   %rdx
ffffffff80000578:	51                   	push   %rcx
ffffffff80000579:	53                   	push   %rbx
ffffffff8000057a:	50                   	push   %rax
ffffffff8000057b:	48 89 e7             	mov    %rsp,%rdi
ffffffff8000057e:	e8 7d 3c 00 00       	call   ffffffff80004200 <interrupt_dispatch>
ffffffff80000583:	58                   	pop    %rax
ffffffff80000584:	5b                   	pop    %rbx
ffffffff80000585:	59                   	pop    %rcx
ffffffff80000586:	5a                   	pop    %rdx
ffffffff80000587:	5e                   	pop    %rsi
ffffffff80000588:	5f                   	pop    %rdi
ffffffff80000589:	5d                   	pop    %rbp
ffffffff8000058a:	41 58                	pop    %r8
ffffffff8000058c:	41 59                	pop    %r9
ffffffff8000058e:	41 5a                	pop    %r10
ffffffff80000590:	41 5b                	pop    %r11
ffffffff80000592:	41 5c                	pop    %r12
ffffffff80000594:	41 5d                	pop    %r13
ffffffff80000596:	41 5e                	pop    %r14
ffffffff80000598:	41 5f                	pop    %r15
ffffffff8000059a:	48 83 c4 10          	add    $0x10,%rsp
ffffffff8000059e:	48 cf                	iretq

ffffffff800005a0 <isr22>:
ffffffff800005a0:	6a 00                	push   $0x0
ffffffff800005a2:	6a 16                	push   $0x16
ffffffff800005a4:	41 57                	push   %r15
ffffffff800005a6:	41 56                	push   %r14
ffffffff800005a8:	41 55                	push   %r13
ffffffff800005aa:	41 54                	push   %r12
ffffffff800005ac:	41 53                	push   %r11
ffffffff800005ae:	41 52                	push   %r10
ffffffff800005b0:	41 51                	push   %r9
ffffffff800005b2:	41 50                	push   %r8
ffffffff800005b4:	55                   	push   %rbp
ffffffff800005b5:	57                   	push   %rdi
ffffffff800005b6:	56                   	push   %rsi
ffffffff800005b7:	52                   	push   %rdx
ffffffff800005b8:	51                   	push   %rcx
ffffffff800005b9:	53                   	push   %rbx
ffffffff800005ba:	50                   	push   %rax
ffffffff800005bb:	48 89 e7             	mov    %rsp,%rdi
ffffffff800005be:	e8 3d 3c 00 00       	call   ffffffff80004200 <interrupt_dispatch>
ffffffff800005c3:	58                   	pop    %rax
ffffffff800005c4:	5b                   	pop    %rbx
ffffffff800005c5:	59                   	pop    %rcx
ffffffff800005c6:	5a                   	pop    %rdx
ffffffff800005c7:	5e                   	pop    %rsi
ffffffff800005c8:	5f                   	pop    %rdi
ffffffff800005c9:	5d                   	pop    %rbp
ffffffff800005ca:	41 58                	pop    %r8
ffffffff800005cc:	41 59                	pop    %r9
ffffffff800005ce:	41 5a                	pop    %r10
ffffffff800005d0:	41 5b                	pop    %r11
ffffffff800005d2:	41 5c                	pop    %r12
ffffffff800005d4:	41 5d                	pop    %r13
ffffffff800005d6:	41 5e                	pop    %r14
ffffffff800005d8:	41 5f                	pop    %r15
ffffffff800005da:	48 83 c4 10          	add    $0x10,%rsp
ffffffff800005de:	48 cf                	iretq

ffffffff800005e0 <isr23>:
ffffffff800005e0:	6a 00                	push   $0x0
ffffffff800005e2:	6a 17                	push   $0x17
ffffffff800005e4:	41 57                	push   %r15
ffffffff800005e6:	41 56                	push   %r14
ffffffff800005e8:	41 55                	push   %r13
ffffffff800005ea:	41 54                	push   %r12
ffffffff800005ec:	41 53                	push   %r11
ffffffff800005ee:	41 52                	push   %r10
ffffffff800005f0:	41 51                	push   %r9
ffffffff800005f2:	41 50                	push   %r8
ffffffff800005f4:	55                   	push   %rbp
ffffffff800005f5:	57                   	push   %rdi
ffffffff800005f6:	56                   	push   %rsi
ffffffff800005f7:	52                   	push   %rdx
ffffffff800005f8:	51                   	push   %rcx
ffffffff800005f9:	53                   	push   %rbx
ffffffff800005fa:	50                   	push   %rax
ffffffff800005fb:	48 89 e7             	mov    %rsp,%rdi
ffffffff800005fe:	e8 fd 3b 00 00       	call   ffffffff80004200 <interrupt_dispatch>
ffffffff80000603:	58                   	pop    %rax
ffffffff80000604:	5b                   	pop    %rbx
ffffffff80000605:	59                   	pop    %rcx
ffffffff80000606:	5a                   	pop    %rdx
ffffffff80000607:	5e                   	pop    %rsi
ffffffff80000608:	5f                   	pop    %rdi
ffffffff80000609:	5d                   	pop    %rbp
ffffffff8000060a:	41 58                	pop    %r8
ffffffff8000060c:	41 59                	pop    %r9
ffffffff8000060e:	41 5a                	pop    %r10
ffffffff80000610:	41 5b                	pop    %r11
ffffffff80000612:	41 5c                	pop    %r12
ffffffff80000614:	41 5d                	pop    %r13
ffffffff80000616:	41 5e                	pop    %r14
ffffffff80000618:	41 5f                	pop    %r15
ffffffff8000061a:	48 83 c4 10          	add    $0x10,%rsp
ffffffff8000061e:	48 cf                	iretq

ffffffff80000620 <isr24>:
ffffffff80000620:	6a 00                	push   $0x0
ffffffff80000622:	6a 18                	push   $0x18
ffffffff80000624:	41 57                	push   %r15
ffffffff80000626:	41 56                	push   %r14
ffffffff80000628:	41 55                	push   %r13
ffffffff8000062a:	41 54                	push   %r12
ffffffff8000062c:	41 53                	push   %r11
ffffffff8000062e:	41 52                	push   %r10
ffffffff80000630:	41 51                	push   %r9
ffffffff80000632:	41 50                	push   %r8
ffffffff80000634:	55                   	push   %rbp
ffffffff80000635:	57                   	push   %rdi
ffffffff80000636:	56                   	push   %rsi
ffffffff80000637:	52                   	push   %rdx
ffffffff80000638:	51                   	push   %rcx
ffffffff80000639:	53                   	push   %rbx
ffffffff8000063a:	50                   	push   %rax
ffffffff8000063b:	48 89 e7             	mov    %rsp,%rdi
ffffffff8000063e:	e8 bd 3b 00 00       	call   ffffffff80004200 <interrupt_dispatch>
ffffffff80000643:	58                   	pop    %rax
ffffffff80000644:	5b                   	pop    %rbx
ffffffff80000645:	59                   	pop    %rcx
ffffffff80000646:	5a                   	pop    %rdx
ffffffff80000647:	5e                   	pop    %rsi
ffffffff80000648:	5f                   	pop    %rdi
ffffffff80000649:	5d                   	pop    %rbp
ffffffff8000064a:	41 58                	pop    %r8
ffffffff8000064c:	41 59                	pop    %r9
ffffffff8000064e:	41 5a                	pop    %r10
ffffffff80000650:	41 5b                	pop    %r11
ffffffff80000652:	41 5c                	pop    %r12
ffffffff80000654:	41 5d                	pop    %r13
ffffffff80000656:	41 5e                	pop    %r14
ffffffff80000658:	41 5f                	pop    %r15
ffffffff8000065a:	48 83 c4 10          	add    $0x10,%rsp
ffffffff8000065e:	48 cf                	iretq

ffffffff80000660 <isr25>:
ffffffff80000660:	6a 00                	push   $0x0
ffffffff80000662:	6a 19                	push   $0x19
ffffffff80000664:	41 57                	push   %r15
ffffffff80000666:	41 56                	push   %r14
ffffffff80000668:	41 55                	push   %r13
ffffffff8000066a:	41 54                	push   %r12
ffffffff8000066c:	41 53                	push   %r11
ffffffff8000066e:	41 52                	push   %r10
ffffffff80000670:	41 51                	push   %r9
ffffffff80000672:	41 50                	push   %r8
ffffffff80000674:	55                   	push   %rbp
ffffffff80000675:	57                   	push   %rdi
ffffffff80000676:	56                   	push   %rsi
ffffffff80000677:	52                   	push   %rdx
ffffffff80000678:	51                   	push   %rcx
ffffffff80000679:	53                   	push   %rbx
ffffffff8000067a:	50                   	push   %rax
ffffffff8000067b:	48 89 e7             	mov    %rsp,%rdi
ffffffff8000067e:	e8 7d 3b 00 00       	call   ffffffff80004200 <interrupt_dispatch>
ffffffff80000683:	58                   	pop    %rax
ffffffff80000684:	5b                   	pop    %rbx
ffffffff80000685:	59                   	pop    %rcx
ffffffff80000686:	5a                   	pop    %rdx
ffffffff80000687:	5e                   	pop    %rsi
ffffffff80000688:	5f                   	pop    %rdi
ffffffff80000689:	5d                   	pop    %rbp
ffffffff8000068a:	41 58                	pop    %r8
ffffffff8000068c:	41 59                	pop    %r9
ffffffff8000068e:	41 5a                	pop    %r10
ffffffff80000690:	41 5b                	pop    %r11
ffffffff80000692:	41 5c                	pop    %r12
ffffffff80000694:	41 5d                	pop    %r13
ffffffff80000696:	41 5e                	pop    %r14
ffffffff80000698:	41 5f                	pop    %r15
ffffffff8000069a:	48 83 c4 10          	add    $0x10,%rsp
ffffffff8000069e:	48 cf                	iretq

ffffffff800006a0 <isr26>:
ffffffff800006a0:	6a 00                	push   $0x0
ffffffff800006a2:	6a 1a                	push   $0x1a
ffffffff800006a4:	41 57                	push   %r15
ffffffff800006a6:	41 56                	push   %r14
ffffffff800006a8:	41 55                	push   %r13
ffffffff800006aa:	41 54                	push   %r12
ffffffff800006ac:	41 53                	push   %r11
ffffffff800006ae:	41 52                	push   %r10
ffffffff800006b0:	41 51                	push   %r9
ffffffff800006b2:	41 50                	push   %r8
ffffffff800006b4:	55                   	push   %rbp
ffffffff800006b5:	57                   	push   %rdi
ffffffff800006b6:	56                   	push   %rsi
ffffffff800006b7:	52                   	push   %rdx
ffffffff800006b8:	51                   	push   %rcx
ffffffff800006b9:	53                   	push   %rbx
ffffffff800006ba:	50                   	push   %rax
ffffffff800006bb:	48 89 e7             	mov    %rsp,%rdi
ffffffff800006be:	e8 3d 3b 00 00       	call   ffffffff80004200 <interrupt_dispatch>
ffffffff800006c3:	58                   	pop    %rax
ffffffff800006c4:	5b                   	pop    %rbx
ffffffff800006c5:	59                   	pop    %rcx
ffffffff800006c6:	5a                   	pop    %rdx
ffffffff800006c7:	5e                   	pop    %rsi
ffffffff800006c8:	5f                   	pop    %rdi
ffffffff800006c9:	5d                   	pop    %rbp
ffffffff800006ca:	41 58                	pop    %r8
ffffffff800006cc:	41 59                	pop    %r9
ffffffff800006ce:	41 5a                	pop    %r10
ffffffff800006d0:	41 5b                	pop    %r11
ffffffff800006d2:	41 5c                	pop    %r12
ffffffff800006d4:	41 5d                	pop    %r13
ffffffff800006d6:	41 5e                	pop    %r14
ffffffff800006d8:	41 5f                	pop    %r15
ffffffff800006da:	48 83 c4 10          	add    $0x10,%rsp
ffffffff800006de:	48 cf                	iretq

ffffffff800006e0 <isr27>:
ffffffff800006e0:	6a 00                	push   $0x0
ffffffff800006e2:	6a 1b                	push   $0x1b
ffffffff800006e4:	41 57                	push   %r15
ffffffff800006e6:	41 56                	push   %r14
ffffffff800006e8:	41 55                	push   %r13
ffffffff800006ea:	41 54                	push   %r12
ffffffff800006ec:	41 53                	push   %r11
ffffffff800006ee:	41 52                	push   %r10
ffffffff800006f0:	41 51                	push   %r9
ffffffff800006f2:	41 50                	push   %r8
ffffffff800006f4:	55                   	push   %rbp
ffffffff800006f5:	57                   	push   %rdi
ffffffff800006f6:	56                   	push   %rsi
ffffffff800006f7:	52                   	push   %rdx
ffffffff800006f8:	51                   	push   %rcx
ffffffff800006f9:	53                   	push   %rbx
ffffffff800006fa:	50                   	push   %rax
ffffffff800006fb:	48 89 e7             	mov    %rsp,%rdi
ffffffff800006fe:	e8 fd 3a 00 00       	call   ffffffff80004200 <interrupt_dispatch>
ffffffff80000703:	58                   	pop    %rax
ffffffff80000704:	5b                   	pop    %rbx
ffffffff80000705:	59                   	pop    %rcx
ffffffff80000706:	5a                   	pop    %rdx
ffffffff80000707:	5e                   	pop    %rsi
ffffffff80000708:	5f                   	pop    %rdi
ffffffff80000709:	5d                   	pop    %rbp
ffffffff8000070a:	41 58                	pop    %r8
ffffffff8000070c:	41 59                	pop    %r9
ffffffff8000070e:	41 5a                	pop    %r10
ffffffff80000710:	41 5b                	pop    %r11
ffffffff80000712:	41 5c                	pop    %r12
ffffffff80000714:	41 5d                	pop    %r13
ffffffff80000716:	41 5e                	pop    %r14
ffffffff80000718:	41 5f                	pop    %r15
ffffffff8000071a:	48 83 c4 10          	add    $0x10,%rsp
ffffffff8000071e:	48 cf                	iretq

ffffffff80000720 <isr28>:
ffffffff80000720:	6a 00                	push   $0x0
ffffffff80000722:	6a 1c                	push   $0x1c
ffffffff80000724:	41 57                	push   %r15
ffffffff80000726:	41 56                	push   %r14
ffffffff80000728:	41 55                	push   %r13
ffffffff8000072a:	41 54                	push   %r12
ffffffff8000072c:	41 53                	push   %r11
ffffffff8000072e:	41 52                	push   %r10
ffffffff80000730:	41 51                	push   %r9
ffffffff80000732:	41 50                	push   %r8
ffffffff80000734:	55                   	push   %rbp
ffffffff80000735:	57                   	push   %rdi
ffffffff80000736:	56                   	push   %rsi
ffffffff80000737:	52                   	push   %rdx
ffffffff80000738:	51                   	push   %rcx
ffffffff80000739:	53                   	push   %rbx
ffffffff8000073a:	50                   	push   %rax
ffffffff8000073b:	48 89 e7             	mov    %rsp,%rdi
ffffffff8000073e:	e8 bd 3a 00 00       	call   ffffffff80004200 <interrupt_dispatch>
ffffffff80000743:	58                   	pop    %rax
ffffffff80000744:	5b                   	pop    %rbx
ffffffff80000745:	59                   	pop    %rcx
ffffffff80000746:	5a                   	pop    %rdx
ffffffff80000747:	5e                   	pop    %rsi
ffffffff80000748:	5f                   	pop    %rdi
ffffffff80000749:	5d                   	pop    %rbp
ffffffff8000074a:	41 58                	pop    %r8
ffffffff8000074c:	41 59                	pop    %r9
ffffffff8000074e:	41 5a                	pop    %r10
ffffffff80000750:	41 5b                	pop    %r11
ffffffff80000752:	41 5c                	pop    %r12
ffffffff80000754:	41 5d                	pop    %r13
ffffffff80000756:	41 5e                	pop    %r14
ffffffff80000758:	41 5f                	pop    %r15
ffffffff8000075a:	48 83 c4 10          	add    $0x10,%rsp
ffffffff8000075e:	48 cf                	iretq

ffffffff80000760 <isr29>:
ffffffff80000760:	6a 1d                	push   $0x1d
ffffffff80000762:	41 57                	push   %r15
ffffffff80000764:	41 56                	push   %r14
ffffffff80000766:	41 55                	push   %r13
ffffffff80000768:	41 54                	push   %r12
ffffffff8000076a:	41 53                	push   %r11
ffffffff8000076c:	41 52                	push   %r10
ffffffff8000076e:	41 51                	push   %r9
ffffffff80000770:	41 50                	push   %r8
ffffffff80000772:	55                   	push   %rbp
ffffffff80000773:	57                   	push   %rdi
ffffffff80000774:	56                   	push   %rsi
ffffffff80000775:	52                   	push   %rdx
ffffffff80000776:	51                   	push   %rcx
ffffffff80000777:	53                   	push   %rbx
ffffffff80000778:	50                   	push   %rax
ffffffff80000779:	48 89 e7             	mov    %rsp,%rdi
ffffffff8000077c:	e8 7f 3a 00 00       	call   ffffffff80004200 <interrupt_dispatch>
ffffffff80000781:	58                   	pop    %rax
ffffffff80000782:	5b                   	pop    %rbx
ffffffff80000783:	59                   	pop    %rcx
ffffffff80000784:	5a                   	pop    %rdx
ffffffff80000785:	5e                   	pop    %rsi
ffffffff80000786:	5f                   	pop    %rdi
ffffffff80000787:	5d                   	pop    %rbp
ffffffff80000788:	41 58                	pop    %r8
ffffffff8000078a:	41 59                	pop    %r9
ffffffff8000078c:	41 5a                	pop    %r10
ffffffff8000078e:	41 5b                	pop    %r11
ffffffff80000790:	41 5c                	pop    %r12
ffffffff80000792:	41 5d                	pop    %r13
ffffffff80000794:	41 5e                	pop    %r14
ffffffff80000796:	41 5f                	pop    %r15
ffffffff80000798:	48 83 c4 10          	add    $0x10,%rsp
ffffffff8000079c:	48 cf                	iretq

ffffffff8000079e <isr30>:
ffffffff8000079e:	6a 1e                	push   $0x1e
ffffffff800007a0:	41 57                	push   %r15
ffffffff800007a2:	41 56                	push   %r14
ffffffff800007a4:	41 55                	push   %r13
ffffffff800007a6:	41 54                	push   %r12
ffffffff800007a8:	41 53                	push   %r11
ffffffff800007aa:	41 52                	push   %r10
ffffffff800007ac:	41 51                	push   %r9
ffffffff800007ae:	41 50                	push   %r8
ffffffff800007b0:	55                   	push   %rbp
ffffffff800007b1:	57                   	push   %rdi
ffffffff800007b2:	56                   	push   %rsi
ffffffff800007b3:	52                   	push   %rdx
ffffffff800007b4:	51                   	push   %rcx
ffffffff800007b5:	53                   	push   %rbx
ffffffff800007b6:	50                   	push   %rax
ffffffff800007b7:	48 89 e7             	mov    %rsp,%rdi
ffffffff800007ba:	e8 41 3a 00 00       	call   ffffffff80004200 <interrupt_dispatch>
ffffffff800007bf:	58                   	pop    %rax
ffffffff800007c0:	5b                   	pop    %rbx
ffffffff800007c1:	59                   	pop    %rcx
ffffffff800007c2:	5a                   	pop    %rdx
ffffffff800007c3:	5e                   	pop    %rsi
ffffffff800007c4:	5f                   	pop    %rdi
ffffffff800007c5:	5d                   	pop    %rbp
ffffffff800007c6:	41 58                	pop    %r8
ffffffff800007c8:	41 59                	pop    %r9
ffffffff800007ca:	41 5a                	pop    %r10
ffffffff800007cc:	41 5b                	pop    %r11
ffffffff800007ce:	41 5c                	pop    %r12
ffffffff800007d0:	41 5d                	pop    %r13
ffffffff800007d2:	41 5e                	pop    %r14
ffffffff800007d4:	41 5f                	pop    %r15
ffffffff800007d6:	48 83 c4 10          	add    $0x10,%rsp
ffffffff800007da:	48 cf                	iretq

ffffffff800007dc <isr31>:
ffffffff800007dc:	6a 00                	push   $0x0
ffffffff800007de:	6a 1f                	push   $0x1f
ffffffff800007e0:	41 57                	push   %r15
ffffffff800007e2:	41 56                	push   %r14
ffffffff800007e4:	41 55                	push   %r13
ffffffff800007e6:	41 54                	push   %r12
ffffffff800007e8:	41 53                	push   %r11
ffffffff800007ea:	41 52                	push   %r10
ffffffff800007ec:	41 51                	push   %r9
ffffffff800007ee:	41 50                	push   %r8
ffffffff800007f0:	55                   	push   %rbp
ffffffff800007f1:	57                   	push   %rdi
ffffffff800007f2:	56                   	push   %rsi
ffffffff800007f3:	52                   	push   %rdx
ffffffff800007f4:	51                   	push   %rcx
ffffffff800007f5:	53                   	push   %rbx
ffffffff800007f6:	50                   	push   %rax
ffffffff800007f7:	48 89 e7             	mov    %rsp,%rdi
ffffffff800007fa:	e8 01 3a 00 00       	call   ffffffff80004200 <interrupt_dispatch>
ffffffff800007ff:	58                   	pop    %rax
ffffffff80000800:	5b                   	pop    %rbx
ffffffff80000801:	59                   	pop    %rcx
ffffffff80000802:	5a                   	pop    %rdx
ffffffff80000803:	5e                   	pop    %rsi
ffffffff80000804:	5f                   	pop    %rdi
ffffffff80000805:	5d                   	pop    %rbp
ffffffff80000806:	41 58                	pop    %r8
ffffffff80000808:	41 59                	pop    %r9
ffffffff8000080a:	41 5a                	pop    %r10
ffffffff8000080c:	41 5b                	pop    %r11
ffffffff8000080e:	41 5c                	pop    %r12
ffffffff80000810:	41 5d                	pop    %r13
ffffffff80000812:	41 5e                	pop    %r14
ffffffff80000814:	41 5f                	pop    %r15
ffffffff80000816:	48 83 c4 10          	add    $0x10,%rsp
ffffffff8000081a:	48 cf                	iretq

ffffffff8000081c <isr32>:
ffffffff8000081c:	6a 00                	push   $0x0
ffffffff8000081e:	6a 20                	push   $0x20
ffffffff80000820:	41 57                	push   %r15
ffffffff80000822:	41 56                	push   %r14
ffffffff80000824:	41 55                	push   %r13
ffffffff80000826:	41 54                	push   %r12
ffffffff80000828:	41 53                	push   %r11
ffffffff8000082a:	41 52                	push   %r10
ffffffff8000082c:	41 51                	push   %r9
ffffffff8000082e:	41 50                	push   %r8
ffffffff80000830:	55                   	push   %rbp
ffffffff80000831:	57                   	push   %rdi
ffffffff80000832:	56                   	push   %rsi
ffffffff80000833:	52                   	push   %rdx
ffffffff80000834:	51                   	push   %rcx
ffffffff80000835:	53                   	push   %rbx
ffffffff80000836:	50                   	push   %rax
ffffffff80000837:	48 89 e7             	mov    %rsp,%rdi
ffffffff8000083a:	e8 c1 39 00 00       	call   ffffffff80004200 <interrupt_dispatch>
ffffffff8000083f:	58                   	pop    %rax
ffffffff80000840:	5b                   	pop    %rbx
ffffffff80000841:	59                   	pop    %rcx
ffffffff80000842:	5a                   	pop    %rdx
ffffffff80000843:	5e                   	pop    %rsi
ffffffff80000844:	5f                   	pop    %rdi
ffffffff80000845:	5d                   	pop    %rbp
ffffffff80000846:	41 58                	pop    %r8
ffffffff80000848:	41 59                	pop    %r9
ffffffff8000084a:	41 5a                	pop    %r10
ffffffff8000084c:	41 5b                	pop    %r11
ffffffff8000084e:	41 5c                	pop    %r12
ffffffff80000850:	41 5d                	pop    %r13
ffffffff80000852:	41 5e                	pop    %r14
ffffffff80000854:	41 5f                	pop    %r15
ffffffff80000856:	48 83 c4 10          	add    $0x10,%rsp
ffffffff8000085a:	48 cf                	iretq

ffffffff8000085c <isr33>:
ffffffff8000085c:	6a 00                	push   $0x0
ffffffff8000085e:	6a 21                	push   $0x21
ffffffff80000860:	41 57                	push   %r15
ffffffff80000862:	41 56                	push   %r14
ffffffff80000864:	41 55                	push   %r13
ffffffff80000866:	41 54                	push   %r12
ffffffff80000868:	41 53                	push   %r11
ffffffff8000086a:	41 52                	push   %r10
ffffffff8000086c:	41 51                	push   %r9
ffffffff8000086e:	41 50                	push   %r8
ffffffff80000870:	55                   	push   %rbp
ffffffff80000871:	57                   	push   %rdi
ffffffff80000872:	56                   	push   %rsi
ffffffff80000873:	52                   	push   %rdx
ffffffff80000874:	51                   	push   %rcx
ffffffff80000875:	53                   	push   %rbx
ffffffff80000876:	50                   	push   %rax
ffffffff80000877:	48 89 e7             	mov    %rsp,%rdi
ffffffff8000087a:	e8 81 39 00 00       	call   ffffffff80004200 <interrupt_dispatch>
ffffffff8000087f:	58                   	pop    %rax
ffffffff80000880:	5b                   	pop    %rbx
ffffffff80000881:	59                   	pop    %rcx
ffffffff80000882:	5a                   	pop    %rdx
ffffffff80000883:	5e                   	pop    %rsi
ffffffff80000884:	5f                   	pop    %rdi
ffffffff80000885:	5d                   	pop    %rbp
ffffffff80000886:	41 58                	pop    %r8
ffffffff80000888:	41 59                	pop    %r9
ffffffff8000088a:	41 5a                	pop    %r10
ffffffff8000088c:	41 5b                	pop    %r11
ffffffff8000088e:	41 5c                	pop    %r12
ffffffff80000890:	41 5d                	pop    %r13
ffffffff80000892:	41 5e                	pop    %r14
ffffffff80000894:	41 5f                	pop    %r15
ffffffff80000896:	48 83 c4 10          	add    $0x10,%rsp
ffffffff8000089a:	48 cf                	iretq

ffffffff8000089c <isr34>:
ffffffff8000089c:	6a 00                	push   $0x0
ffffffff8000089e:	6a 22                	push   $0x22
ffffffff800008a0:	41 57                	push   %r15
ffffffff800008a2:	41 56                	push   %r14
ffffffff800008a4:	41 55                	push   %r13
ffffffff800008a6:	41 54                	push   %r12
ffffffff800008a8:	41 53                	push   %r11
ffffffff800008aa:	41 52                	push   %r10
ffffffff800008ac:	41 51                	push   %r9
ffffffff800008ae:	41 50                	push   %r8
ffffffff800008b0:	55                   	push   %rbp
ffffffff800008b1:	57                   	push   %rdi
ffffffff800008b2:	56                   	push   %rsi
ffffffff800008b3:	52                   	push   %rdx
ffffffff800008b4:	51                   	push   %rcx
ffffffff800008b5:	53                   	push   %rbx
ffffffff800008b6:	50                   	push   %rax
ffffffff800008b7:	48 89 e7             	mov    %rsp,%rdi
ffffffff800008ba:	e8 41 39 00 00       	call   ffffffff80004200 <interrupt_dispatch>
ffffffff800008bf:	58                   	pop    %rax
ffffffff800008c0:	5b                   	pop    %rbx
ffffffff800008c1:	59                   	pop    %rcx
ffffffff800008c2:	5a                   	pop    %rdx
ffffffff800008c3:	5e                   	pop    %rsi
ffffffff800008c4:	5f                   	pop    %rdi
ffffffff800008c5:	5d                   	pop    %rbp
ffffffff800008c6:	41 58                	pop    %r8
ffffffff800008c8:	41 59                	pop    %r9
ffffffff800008ca:	41 5a                	pop    %r10
ffffffff800008cc:	41 5b                	pop    %r11
ffffffff800008ce:	41 5c                	pop    %r12
ffffffff800008d0:	41 5d                	pop    %r13
ffffffff800008d2:	41 5e                	pop    %r14
ffffffff800008d4:	41 5f                	pop    %r15
ffffffff800008d6:	48 83 c4 10          	add    $0x10,%rsp
ffffffff800008da:	48 cf                	iretq

ffffffff800008dc <isr35>:
ffffffff800008dc:	6a 00                	push   $0x0
ffffffff800008de:	6a 23                	push   $0x23
ffffffff800008e0:	41 57                	push   %r15
ffffffff800008e2:	41 56                	push   %r14
ffffffff800008e4:	41 55                	push   %r13
ffffffff800008e6:	41 54                	push   %r12
ffffffff800008e8:	41 53                	push   %r11
ffffffff800008ea:	41 52                	push   %r10
ffffffff800008ec:	41 51                	push   %r9
ffffffff800008ee:	41 50                	push   %r8
ffffffff800008f0:	55                   	push   %rbp
ffffffff800008f1:	57                   	push   %rdi
ffffffff800008f2:	56                   	push   %rsi
ffffffff800008f3:	52                   	push   %rdx
ffffffff800008f4:	51                   	push   %rcx
ffffffff800008f5:	53                   	push   %rbx
ffffffff800008f6:	50                   	push   %rax
ffffffff800008f7:	48 89 e7             	mov    %rsp,%rdi
ffffffff800008fa:	e8 01 39 00 00       	call   ffffffff80004200 <interrupt_dispatch>
ffffffff800008ff:	58                   	pop    %rax
ffffffff80000900:	5b                   	pop    %rbx
ffffffff80000901:	59                   	pop    %rcx
ffffffff80000902:	5a                   	pop    %rdx
ffffffff80000903:	5e                   	pop    %rsi
ffffffff80000904:	5f                   	pop    %rdi
ffffffff80000905:	5d                   	pop    %rbp
ffffffff80000906:	41 58                	pop    %r8
ffffffff80000908:	41 59                	pop    %r9
ffffffff8000090a:	41 5a                	pop    %r10
ffffffff8000090c:	41 5b                	pop    %r11
ffffffff8000090e:	41 5c                	pop    %r12
ffffffff80000910:	41 5d                	pop    %r13
ffffffff80000912:	41 5e                	pop    %r14
ffffffff80000914:	41 5f                	pop    %r15
ffffffff80000916:	48 83 c4 10          	add    $0x10,%rsp
ffffffff8000091a:	48 cf                	iretq

ffffffff8000091c <isr36>:
ffffffff8000091c:	6a 00                	push   $0x0
ffffffff8000091e:	6a 24                	push   $0x24
ffffffff80000920:	41 57                	push   %r15
ffffffff80000922:	41 56                	push   %r14
ffffffff80000924:	41 55                	push   %r13
ffffffff80000926:	41 54                	push   %r12
ffffffff80000928:	41 53                	push   %r11
ffffffff8000092a:	41 52                	push   %r10
ffffffff8000092c:	41 51                	push   %r9
ffffffff8000092e:	41 50                	push   %r8
ffffffff80000930:	55                   	push   %rbp
ffffffff80000931:	57                   	push   %rdi
ffffffff80000932:	56                   	push   %rsi
ffffffff80000933:	52                   	push   %rdx
ffffffff80000934:	51                   	push   %rcx
ffffffff80000935:	53                   	push   %rbx
ffffffff80000936:	50                   	push   %rax
ffffffff80000937:	48 89 e7             	mov    %rsp,%rdi
ffffffff8000093a:	e8 c1 38 00 00       	call   ffffffff80004200 <interrupt_dispatch>
ffffffff8000093f:	58                   	pop    %rax
ffffffff80000940:	5b                   	pop    %rbx
ffffffff80000941:	59                   	pop    %rcx
ffffffff80000942:	5a                   	pop    %rdx
ffffffff80000943:	5e                   	pop    %rsi
ffffffff80000944:	5f                   	pop    %rdi
ffffffff80000945:	5d                   	pop    %rbp
ffffffff80000946:	41 58                	pop    %r8
ffffffff80000948:	41 59                	pop    %r9
ffffffff8000094a:	41 5a                	pop    %r10
ffffffff8000094c:	41 5b                	pop    %r11
ffffffff8000094e:	41 5c                	pop    %r12
ffffffff80000950:	41 5d                	pop    %r13
ffffffff80000952:	41 5e                	pop    %r14
ffffffff80000954:	41 5f                	pop    %r15
ffffffff80000956:	48 83 c4 10          	add    $0x10,%rsp
ffffffff8000095a:	48 cf                	iretq

ffffffff8000095c <isr37>:
ffffffff8000095c:	6a 00                	push   $0x0
ffffffff8000095e:	6a 25                	push   $0x25
ffffffff80000960:	41 57                	push   %r15
ffffffff80000962:	41 56                	push   %r14
ffffffff80000964:	41 55                	push   %r13
ffffffff80000966:	41 54                	push   %r12
ffffffff80000968:	41 53                	push   %r11
ffffffff8000096a:	41 52                	push   %r10
ffffffff8000096c:	41 51                	push   %r9
ffffffff8000096e:	41 50                	push   %r8
ffffffff80000970:	55                   	push   %rbp
ffffffff80000971:	57                   	push   %rdi
ffffffff80000972:	56                   	push   %rsi
ffffffff80000973:	52                   	push   %rdx
ffffffff80000974:	51                   	push   %rcx
ffffffff80000975:	53                   	push   %rbx
ffffffff80000976:	50                   	push   %rax
ffffffff80000977:	48 89 e7             	mov    %rsp,%rdi
ffffffff8000097a:	e8 81 38 00 00       	call   ffffffff80004200 <interrupt_dispatch>
ffffffff8000097f:	58                   	pop    %rax
ffffffff80000980:	5b                   	pop    %rbx
ffffffff80000981:	59                   	pop    %rcx
ffffffff80000982:	5a                   	pop    %rdx
ffffffff80000983:	5e                   	pop    %rsi
ffffffff80000984:	5f                   	pop    %rdi
ffffffff80000985:	5d                   	pop    %rbp
ffffffff80000986:	41 58                	pop    %r8
ffffffff80000988:	41 59                	pop    %r9
ffffffff8000098a:	41 5a                	pop    %r10
ffffffff8000098c:	41 5b                	pop    %r11
ffffffff8000098e:	41 5c                	pop    %r12
ffffffff80000990:	41 5d                	pop    %r13
ffffffff80000992:	41 5e                	pop    %r14
ffffffff80000994:	41 5f                	pop    %r15
ffffffff80000996:	48 83 c4 10          	add    $0x10,%rsp
ffffffff8000099a:	48 cf                	iretq

ffffffff8000099c <isr38>:
ffffffff8000099c:	6a 00                	push   $0x0
ffffffff8000099e:	6a 26                	push   $0x26
ffffffff800009a0:	41 57                	push   %r15
ffffffff800009a2:	41 56                	push   %r14
ffffffff800009a4:	41 55                	push   %r13
ffffffff800009a6:	41 54                	push   %r12
ffffffff800009a8:	41 53                	push   %r11
ffffffff800009aa:	41 52                	push   %r10
ffffffff800009ac:	41 51                	push   %r9
ffffffff800009ae:	41 50                	push   %r8
ffffffff800009b0:	55                   	push   %rbp
ffffffff800009b1:	57                   	push   %rdi
ffffffff800009b2:	56                   	push   %rsi
ffffffff800009b3:	52                   	push   %rdx
ffffffff800009b4:	51                   	push   %rcx
ffffffff800009b5:	53                   	push   %rbx
ffffffff800009b6:	50                   	push   %rax
ffffffff800009b7:	48 89 e7             	mov    %rsp,%rdi
ffffffff800009ba:	e8 41 38 00 00       	call   ffffffff80004200 <interrupt_dispatch>
ffffffff800009bf:	58                   	pop    %rax
ffffffff800009c0:	5b                   	pop    %rbx
ffffffff800009c1:	59                   	pop    %rcx
ffffffff800009c2:	5a                   	pop    %rdx
ffffffff800009c3:	5e                   	pop    %rsi
ffffffff800009c4:	5f                   	pop    %rdi
ffffffff800009c5:	5d                   	pop    %rbp
ffffffff800009c6:	41 58                	pop    %r8
ffffffff800009c8:	41 59                	pop    %r9
ffffffff800009ca:	41 5a                	pop    %r10
ffffffff800009cc:	41 5b                	pop    %r11
ffffffff800009ce:	41 5c                	pop    %r12
ffffffff800009d0:	41 5d                	pop    %r13
ffffffff800009d2:	41 5e                	pop    %r14
ffffffff800009d4:	41 5f                	pop    %r15
ffffffff800009d6:	48 83 c4 10          	add    $0x10,%rsp
ffffffff800009da:	48 cf                	iretq

ffffffff800009dc <isr39>:
ffffffff800009dc:	6a 00                	push   $0x0
ffffffff800009de:	6a 27                	push   $0x27
ffffffff800009e0:	41 57                	push   %r15
ffffffff800009e2:	41 56                	push   %r14
ffffffff800009e4:	41 55                	push   %r13
ffffffff800009e6:	41 54                	push   %r12
ffffffff800009e8:	41 53                	push   %r11
ffffffff800009ea:	41 52                	push   %r10
ffffffff800009ec:	41 51                	push   %r9
ffffffff800009ee:	41 50                	push   %r8
ffffffff800009f0:	55                   	push   %rbp
ffffffff800009f1:	57                   	push   %rdi
ffffffff800009f2:	56                   	push   %rsi
ffffffff800009f3:	52                   	push   %rdx
ffffffff800009f4:	51                   	push   %rcx
ffffffff800009f5:	53                   	push   %rbx
ffffffff800009f6:	50                   	push   %rax
ffffffff800009f7:	48 89 e7             	mov    %rsp,%rdi
ffffffff800009fa:	e8 01 38 00 00       	call   ffffffff80004200 <interrupt_dispatch>
ffffffff800009ff:	58                   	pop    %rax
ffffffff80000a00:	5b                   	pop    %rbx
ffffffff80000a01:	59                   	pop    %rcx
ffffffff80000a02:	5a                   	pop    %rdx
ffffffff80000a03:	5e                   	pop    %rsi
ffffffff80000a04:	5f                   	pop    %rdi
ffffffff80000a05:	5d                   	pop    %rbp
ffffffff80000a06:	41 58                	pop    %r8
ffffffff80000a08:	41 59                	pop    %r9
ffffffff80000a0a:	41 5a                	pop    %r10
ffffffff80000a0c:	41 5b                	pop    %r11
ffffffff80000a0e:	41 5c                	pop    %r12
ffffffff80000a10:	41 5d                	pop    %r13
ffffffff80000a12:	41 5e                	pop    %r14
ffffffff80000a14:	41 5f                	pop    %r15
ffffffff80000a16:	48 83 c4 10          	add    $0x10,%rsp
ffffffff80000a1a:	48 cf                	iretq

ffffffff80000a1c <isr40>:
ffffffff80000a1c:	6a 00                	push   $0x0
ffffffff80000a1e:	6a 28                	push   $0x28
ffffffff80000a20:	41 57                	push   %r15
ffffffff80000a22:	41 56                	push   %r14
ffffffff80000a24:	41 55                	push   %r13
ffffffff80000a26:	41 54                	push   %r12
ffffffff80000a28:	41 53                	push   %r11
ffffffff80000a2a:	41 52                	push   %r10
ffffffff80000a2c:	41 51                	push   %r9
ffffffff80000a2e:	41 50                	push   %r8
ffffffff80000a30:	55                   	push   %rbp
ffffffff80000a31:	57                   	push   %rdi
ffffffff80000a32:	56                   	push   %rsi
ffffffff80000a33:	52                   	push   %rdx
ffffffff80000a34:	51                   	push   %rcx
ffffffff80000a35:	53                   	push   %rbx
ffffffff80000a36:	50                   	push   %rax
ffffffff80000a37:	48 89 e7             	mov    %rsp,%rdi
ffffffff80000a3a:	e8 c1 37 00 00       	call   ffffffff80004200 <interrupt_dispatch>
ffffffff80000a3f:	58                   	pop    %rax
ffffffff80000a40:	5b                   	pop    %rbx
ffffffff80000a41:	59                   	pop    %rcx
ffffffff80000a42:	5a                   	pop    %rdx
ffffffff80000a43:	5e                   	pop    %rsi
ffffffff80000a44:	5f                   	pop    %rdi
ffffffff80000a45:	5d                   	pop    %rbp
ffffffff80000a46:	41 58                	pop    %r8
ffffffff80000a48:	41 59                	pop    %r9
ffffffff80000a4a:	41 5a                	pop    %r10
ffffffff80000a4c:	41 5b                	pop    %r11
ffffffff80000a4e:	41 5c                	pop    %r12
ffffffff80000a50:	41 5d                	pop    %r13
ffffffff80000a52:	41 5e                	pop    %r14
ffffffff80000a54:	41 5f                	pop    %r15
ffffffff80000a56:	48 83 c4 10          	add    $0x10,%rsp
ffffffff80000a5a:	48 cf                	iretq

ffffffff80000a5c <isr41>:
ffffffff80000a5c:	6a 00                	push   $0x0
ffffffff80000a5e:	6a 29                	push   $0x29
ffffffff80000a60:	41 57                	push   %r15
ffffffff80000a62:	41 56                	push   %r14
ffffffff80000a64:	41 55                	push   %r13
ffffffff80000a66:	41 54                	push   %r12
ffffffff80000a68:	41 53                	push   %r11
ffffffff80000a6a:	41 52                	push   %r10
ffffffff80000a6c:	41 51                	push   %r9
ffffffff80000a6e:	41 50                	push   %r8
ffffffff80000a70:	55                   	push   %rbp
ffffffff80000a71:	57                   	push   %rdi
ffffffff80000a72:	56                   	push   %rsi
ffffffff80000a73:	52                   	push   %rdx
ffffffff80000a74:	51                   	push   %rcx
ffffffff80000a75:	53                   	push   %rbx
ffffffff80000a76:	50                   	push   %rax
ffffffff80000a77:	48 89 e7             	mov    %rsp,%rdi
ffffffff80000a7a:	e8 81 37 00 00       	call   ffffffff80004200 <interrupt_dispatch>
ffffffff80000a7f:	58                   	pop    %rax
ffffffff80000a80:	5b                   	pop    %rbx
ffffffff80000a81:	59                   	pop    %rcx
ffffffff80000a82:	5a                   	pop    %rdx
ffffffff80000a83:	5e                   	pop    %rsi
ffffffff80000a84:	5f                   	pop    %rdi
ffffffff80000a85:	5d                   	pop    %rbp
ffffffff80000a86:	41 58                	pop    %r8
ffffffff80000a88:	41 59                	pop    %r9
ffffffff80000a8a:	41 5a                	pop    %r10
ffffffff80000a8c:	41 5b                	pop    %r11
ffffffff80000a8e:	41 5c                	pop    %r12
ffffffff80000a90:	41 5d                	pop    %r13
ffffffff80000a92:	41 5e                	pop    %r14
ffffffff80000a94:	41 5f                	pop    %r15
ffffffff80000a96:	48 83 c4 10          	add    $0x10,%rsp
ffffffff80000a9a:	48 cf                	iretq

ffffffff80000a9c <isr42>:
ffffffff80000a9c:	6a 00                	push   $0x0
ffffffff80000a9e:	6a 2a                	push   $0x2a
ffffffff80000aa0:	41 57                	push   %r15
ffffffff80000aa2:	41 56                	push   %r14
ffffffff80000aa4:	41 55                	push   %r13
ffffffff80000aa6:	41 54                	push   %r12
ffffffff80000aa8:	41 53                	push   %r11
ffffffff80000aaa:	41 52                	push   %r10
ffffffff80000aac:	41 51                	push   %r9
ffffffff80000aae:	41 50                	push   %r8
ffffffff80000ab0:	55                   	push   %rbp
ffffffff80000ab1:	57                   	push   %rdi
ffffffff80000ab2:	56                   	push   %rsi
ffffffff80000ab3:	52                   	push   %rdx
ffffffff80000ab4:	51                   	push   %rcx
ffffffff80000ab5:	53                   	push   %rbx
ffffffff80000ab6:	50                   	push   %rax
ffffffff80000ab7:	48 89 e7             	mov    %rsp,%rdi
ffffffff80000aba:	e8 41 37 00 00       	call   ffffffff80004200 <interrupt_dispatch>
ffffffff80000abf:	58                   	pop    %rax
ffffffff80000ac0:	5b                   	pop    %rbx
ffffffff80000ac1:	59                   	pop    %rcx
ffffffff80000ac2:	5a                   	pop    %rdx
ffffffff80000ac3:	5e                   	pop    %rsi
ffffffff80000ac4:	5f                   	pop    %rdi
ffffffff80000ac5:	5d                   	pop    %rbp
ffffffff80000ac6:	41 58                	pop    %r8
ffffffff80000ac8:	41 59                	pop    %r9
ffffffff80000aca:	41 5a                	pop    %r10
ffffffff80000acc:	41 5b                	pop    %r11
ffffffff80000ace:	41 5c                	pop    %r12
ffffffff80000ad0:	41 5d                	pop    %r13
ffffffff80000ad2:	41 5e                	pop    %r14
ffffffff80000ad4:	41 5f                	pop    %r15
ffffffff80000ad6:	48 83 c4 10          	add    $0x10,%rsp
ffffffff80000ada:	48 cf                	iretq

ffffffff80000adc <isr43>:
ffffffff80000adc:	6a 00                	push   $0x0
ffffffff80000ade:	6a 2b                	push   $0x2b
ffffffff80000ae0:	41 57                	push   %r15
ffffffff80000ae2:	41 56                	push   %r14
ffffffff80000ae4:	41 55                	push   %r13
ffffffff80000ae6:	41 54                	push   %r12
ffffffff80000ae8:	41 53                	push   %r11
ffffffff80000aea:	41 52                	push   %r10
ffffffff80000aec:	41 51                	push   %r9
ffffffff80000aee:	41 50                	push   %r8
ffffffff80000af0:	55                   	push   %rbp
ffffffff80000af1:	57                   	push   %rdi
ffffffff80000af2:	56                   	push   %rsi
ffffffff80000af3:	52                   	push   %rdx
ffffffff80000af4:	51                   	push   %rcx
ffffffff80000af5:	53                   	push   %rbx
ffffffff80000af6:	50                   	push   %rax
ffffffff80000af7:	48 89 e7             	mov    %rsp,%rdi
ffffffff80000afa:	e8 01 37 00 00       	call   ffffffff80004200 <interrupt_dispatch>
ffffffff80000aff:	58                   	pop    %rax
ffffffff80000b00:	5b                   	pop    %rbx
ffffffff80000b01:	59                   	pop    %rcx
ffffffff80000b02:	5a                   	pop    %rdx
ffffffff80000b03:	5e                   	pop    %rsi
ffffffff80000b04:	5f                   	pop    %rdi
ffffffff80000b05:	5d                   	pop    %rbp
ffffffff80000b06:	41 58                	pop    %r8
ffffffff80000b08:	41 59                	pop    %r9
ffffffff80000b0a:	41 5a                	pop    %r10
ffffffff80000b0c:	41 5b                	pop    %r11
ffffffff80000b0e:	41 5c                	pop    %r12
ffffffff80000b10:	41 5d                	pop    %r13
ffffffff80000b12:	41 5e                	pop    %r14
ffffffff80000b14:	41 5f                	pop    %r15
ffffffff80000b16:	48 83 c4 10          	add    $0x10,%rsp
ffffffff80000b1a:	48 cf                	iretq

ffffffff80000b1c <isr44>:
ffffffff80000b1c:	6a 00                	push   $0x0
ffffffff80000b1e:	6a 2c                	push   $0x2c
ffffffff80000b20:	41 57                	push   %r15
ffffffff80000b22:	41 56                	push   %r14
ffffffff80000b24:	41 55                	push   %r13
ffffffff80000b26:	41 54                	push   %r12
ffffffff80000b28:	41 53                	push   %r11
ffffffff80000b2a:	41 52                	push   %r10
ffffffff80000b2c:	41 51                	push   %r9
ffffffff80000b2e:	41 50                	push   %r8
ffffffff80000b30:	55                   	push   %rbp
ffffffff80000b31:	57                   	push   %rdi
ffffffff80000b32:	56                   	push   %rsi
ffffffff80000b33:	52                   	push   %rdx
ffffffff80000b34:	51                   	push   %rcx
ffffffff80000b35:	53                   	push   %rbx
ffffffff80000b36:	50                   	push   %rax
ffffffff80000b37:	48 89 e7             	mov    %rsp,%rdi
ffffffff80000b3a:	e8 c1 36 00 00       	call   ffffffff80004200 <interrupt_dispatch>
ffffffff80000b3f:	58                   	pop    %rax
ffffffff80000b40:	5b                   	pop    %rbx
ffffffff80000b41:	59                   	pop    %rcx
ffffffff80000b42:	5a                   	pop    %rdx
ffffffff80000b43:	5e                   	pop    %rsi
ffffffff80000b44:	5f                   	pop    %rdi
ffffffff80000b45:	5d                   	pop    %rbp
ffffffff80000b46:	41 58                	pop    %r8
ffffffff80000b48:	41 59                	pop    %r9
ffffffff80000b4a:	41 5a                	pop    %r10
ffffffff80000b4c:	41 5b                	pop    %r11
ffffffff80000b4e:	41 5c                	pop    %r12
ffffffff80000b50:	41 5d                	pop    %r13
ffffffff80000b52:	41 5e                	pop    %r14
ffffffff80000b54:	41 5f                	pop    %r15
ffffffff80000b56:	48 83 c4 10          	add    $0x10,%rsp
ffffffff80000b5a:	48 cf                	iretq

ffffffff80000b5c <isr45>:
ffffffff80000b5c:	6a 00                	push   $0x0
ffffffff80000b5e:	6a 2d                	push   $0x2d
ffffffff80000b60:	41 57                	push   %r15
ffffffff80000b62:	41 56                	push   %r14
ffffffff80000b64:	41 55                	push   %r13
ffffffff80000b66:	41 54                	push   %r12
ffffffff80000b68:	41 53                	push   %r11
ffffffff80000b6a:	41 52                	push   %r10
ffffffff80000b6c:	41 51                	push   %r9
ffffffff80000b6e:	41 50                	push   %r8
ffffffff80000b70:	55                   	push   %rbp
ffffffff80000b71:	57                   	push   %rdi
ffffffff80000b72:	56                   	push   %rsi
ffffffff80000b73:	52                   	push   %rdx
ffffffff80000b74:	51                   	push   %rcx
ffffffff80000b75:	53                   	push   %rbx
ffffffff80000b76:	50                   	push   %rax
ffffffff80000b77:	48 89 e7             	mov    %rsp,%rdi
ffffffff80000b7a:	e8 81 36 00 00       	call   ffffffff80004200 <interrupt_dispatch>
ffffffff80000b7f:	58                   	pop    %rax
ffffffff80000b80:	5b                   	pop    %rbx
ffffffff80000b81:	59                   	pop    %rcx
ffffffff80000b82:	5a                   	pop    %rdx
ffffffff80000b83:	5e                   	pop    %rsi
ffffffff80000b84:	5f                   	pop    %rdi
ffffffff80000b85:	5d                   	pop    %rbp
ffffffff80000b86:	41 58                	pop    %r8
ffffffff80000b88:	41 59                	pop    %r9
ffffffff80000b8a:	41 5a                	pop    %r10
ffffffff80000b8c:	41 5b                	pop    %r11
ffffffff80000b8e:	41 5c                	pop    %r12
ffffffff80000b90:	41 5d                	pop    %r13
ffffffff80000b92:	41 5e                	pop    %r14
ffffffff80000b94:	41 5f                	pop    %r15
ffffffff80000b96:	48 83 c4 10          	add    $0x10,%rsp
ffffffff80000b9a:	48 cf                	iretq

ffffffff80000b9c <isr46>:
ffffffff80000b9c:	6a 00                	push   $0x0
ffffffff80000b9e:	6a 2e                	push   $0x2e
ffffffff80000ba0:	41 57                	push   %r15
ffffffff80000ba2:	41 56                	push   %r14
ffffffff80000ba4:	41 55                	push   %r13
ffffffff80000ba6:	41 54                	push   %r12
ffffffff80000ba8:	41 53                	push   %r11
ffffffff80000baa:	41 52                	push   %r10
ffffffff80000bac:	41 51                	push   %r9
ffffffff80000bae:	41 50                	push   %r8
ffffffff80000bb0:	55                   	push   %rbp
ffffffff80000bb1:	57                   	push   %rdi
ffffffff80000bb2:	56                   	push   %rsi
ffffffff80000bb3:	52                   	push   %rdx
ffffffff80000bb4:	51                   	push   %rcx
ffffffff80000bb5:	53                   	push   %rbx
ffffffff80000bb6:	50                   	push   %rax
ffffffff80000bb7:	48 89 e7             	mov    %rsp,%rdi
ffffffff80000bba:	e8 41 36 00 00       	call   ffffffff80004200 <interrupt_dispatch>
ffffffff80000bbf:	58                   	pop    %rax
ffffffff80000bc0:	5b                   	pop    %rbx
ffffffff80000bc1:	59                   	pop    %rcx
ffffffff80000bc2:	5a                   	pop    %rdx
ffffffff80000bc3:	5e                   	pop    %rsi
ffffffff80000bc4:	5f                   	pop    %rdi
ffffffff80000bc5:	5d                   	pop    %rbp
ffffffff80000bc6:	41 58                	pop    %r8
ffffffff80000bc8:	41 59                	pop    %r9
ffffffff80000bca:	41 5a                	pop    %r10
ffffffff80000bcc:	41 5b                	pop    %r11
ffffffff80000bce:	41 5c                	pop    %r12
ffffffff80000bd0:	41 5d                	pop    %r13
ffffffff80000bd2:	41 5e                	pop    %r14
ffffffff80000bd4:	41 5f                	pop    %r15
ffffffff80000bd6:	48 83 c4 10          	add    $0x10,%rsp
ffffffff80000bda:	48 cf                	iretq

ffffffff80000bdc <isr47>:
ffffffff80000bdc:	6a 00                	push   $0x0
ffffffff80000bde:	6a 2f                	push   $0x2f
ffffffff80000be0:	41 57                	push   %r15
ffffffff80000be2:	41 56                	push   %r14
ffffffff80000be4:	41 55                	push   %r13
ffffffff80000be6:	41 54                	push   %r12
ffffffff80000be8:	41 53                	push   %r11
ffffffff80000bea:	41 52                	push   %r10
ffffffff80000bec:	41 51                	push   %r9
ffffffff80000bee:	41 50                	push   %r8
ffffffff80000bf0:	55                   	push   %rbp
ffffffff80000bf1:	57                   	push   %rdi
ffffffff80000bf2:	56                   	push   %rsi
ffffffff80000bf3:	52                   	push   %rdx
ffffffff80000bf4:	51                   	push   %rcx
ffffffff80000bf5:	53                   	push   %rbx
ffffffff80000bf6:	50                   	push   %rax
ffffffff80000bf7:	48 89 e7             	mov    %rsp,%rdi
ffffffff80000bfa:	e8 01 36 00 00       	call   ffffffff80004200 <interrupt_dispatch>
ffffffff80000bff:	58                   	pop    %rax
ffffffff80000c00:	5b                   	pop    %rbx
ffffffff80000c01:	59                   	pop    %rcx
ffffffff80000c02:	5a                   	pop    %rdx
ffffffff80000c03:	5e                   	pop    %rsi
ffffffff80000c04:	5f                   	pop    %rdi
ffffffff80000c05:	5d                   	pop    %rbp
ffffffff80000c06:	41 58                	pop    %r8
ffffffff80000c08:	41 59                	pop    %r9
ffffffff80000c0a:	41 5a                	pop    %r10
ffffffff80000c0c:	41 5b                	pop    %r11
ffffffff80000c0e:	41 5c                	pop    %r12
ffffffff80000c10:	41 5d                	pop    %r13
ffffffff80000c12:	41 5e                	pop    %r14
ffffffff80000c14:	41 5f                	pop    %r15
ffffffff80000c16:	48 83 c4 10          	add    $0x10,%rsp
ffffffff80000c1a:	48 cf                	iretq
ffffffff80000c1c:	0f 1f 40 00          	nopl   0x0(%rax)

ffffffff80000c20 <syscall_entry>:
ffffffff80000c20:	48 89 24 25 00 80 00 	mov    %rsp,0xffffffff80008000
ffffffff80000c27:	80 
ffffffff80000c28:	48 8b 24 25 00 ac 00 	mov    0xffffffff8000ac00,%rsp
ffffffff80000c2f:	80 
ffffffff80000c30:	51                   	push   %rcx
ffffffff80000c31:	41 53                	push   %r11
ffffffff80000c33:	55                   	push   %rbp
ffffffff80000c34:	53                   	push   %rbx
ffffffff80000c35:	41 54                	push   %r12
ffffffff80000c37:	41 55                	push   %r13
ffffffff80000c39:	41 56                	push   %r14
ffffffff80000c3b:	41 57                	push   %r15
ffffffff80000c3d:	48 89 d1             	mov    %rdx,%rcx
ffffffff80000c40:	48 89 f2             	mov    %rsi,%rdx
ffffffff80000c43:	48 89 fe             	mov    %rdi,%rsi
ffffffff80000c46:	48 89 c7             	mov    %rax,%rdi
ffffffff80000c49:	e8 f2 43 00 00       	call   ffffffff80005040 <syscall_dispatch>
ffffffff80000c4e:	41 5f                	pop    %r15
ffffffff80000c50:	41 5e                	pop    %r14
ffffffff80000c52:	41 5d                	pop    %r13
ffffffff80000c54:	41 5c                	pop    %r12
ffffffff80000c56:	5b                   	pop    %rbx
ffffffff80000c57:	5d                   	pop    %rbp
ffffffff80000c58:	41 5b                	pop    %r11
ffffffff80000c5a:	59                   	pop    %rcx
ffffffff80000c5b:	48 8b 24 25 00 80 00 	mov    0xffffffff80008000,%rsp
ffffffff80000c62:	80 
ffffffff80000c63:	48 0f 07             	sysretq
ffffffff80000c66:	66 2e 0f 1f 84 00 00 	cs nopw 0x0(%rax,%rax,1)
ffffffff80000c6d:	00 00 00 

ffffffff80000c70 <jump_to_userspace>:
ffffffff80000c70:	66 b8 23 00          	mov    $0x23,%ax
ffffffff80000c74:	8e d8                	mov    %eax,%ds
ffffffff80000c76:	8e c0                	mov    %eax,%es
ffffffff80000c78:	6a 23                	push   $0x23
ffffffff80000c7a:	56                   	push   %rsi
ffffffff80000c7b:	68 02 02 00 00       	push   $0x202
ffffffff80000c80:	6a 2b                	push   $0x2b
ffffffff80000c82:	57                   	push   %rdi
ffffffff80000c83:	48 cf                	iretq

ffffffff80000c85 <tss_load>:
ffffffff80000c85:	0f 00 df             	ltr    %edi
ffffffff80000c88:	c3                   	ret

ffffffff80000c89 <gdt_load_flush>:
ffffffff80000c89:	0f 01 17             	lgdt   (%rdi)
ffffffff80000c8c:	66 89 f0             	mov    %si,%ax
ffffffff80000c8f:	8e d8                	mov    %eax,%ds
ffffffff80000c91:	8e c0                	mov    %eax,%es
ffffffff80000c93:	8e e0                	mov    %eax,%fs
ffffffff80000c95:	8e e8                	mov    %eax,%gs
ffffffff80000c97:	8e d0                	mov    %eax,%ss
ffffffff80000c99:	6a 08                	push   $0x8
ffffffff80000c9b:	48 8d 05 03 00 00 00 	lea    0x3(%rip),%rax        # ffffffff80000ca5 <gdt_load_flush.reload_cs>
ffffffff80000ca2:	50                   	push   %rax
ffffffff80000ca3:	48 cb                	lretq

ffffffff80000ca5 <gdt_load_flush.reload_cs>:
ffffffff80000ca5:	c3                   	ret
ffffffff80000ca6:	66 2e 0f 1f 84 00 00 	cs nopw 0x0(%rax,%rax,1)
ffffffff80000cad:	00 00 00 

ffffffff80000cb0 <elf_load>:
ffffffff80000cb0:	f3 0f 1e fa          	endbr64
ffffffff80000cb4:	41 57                	push   %r15
ffffffff80000cb6:	41 56                	push   %r14
ffffffff80000cb8:	41 55                	push   %r13
ffffffff80000cba:	41 54                	push   %r12
ffffffff80000cbc:	55                   	push   %rbp
ffffffff80000cbd:	53                   	push   %rbx
ffffffff80000cbe:	48 89 fb             	mov    %rdi,%rbx
ffffffff80000cc1:	48 83 ec 08          	sub    $0x8,%rsp
ffffffff80000cc5:	8b 7f 04             	mov    0x4(%rdi),%edi
ffffffff80000cc8:	e8 b3 13 00 00       	call   ffffffff80002080 <kmalloc>
ffffffff80000ccd:	8b 53 04             	mov    0x4(%rbx),%edx
ffffffff80000cd0:	48 89 df             	mov    %rbx,%rdi
ffffffff80000cd3:	49 89 c5             	mov    %rax,%r13
ffffffff80000cd6:	48 89 c6             	mov    %rax,%rsi
ffffffff80000cd9:	e8 92 04 00 00       	call   ffffffff80001170 <fat32_read>
ffffffff80000cde:	41 80 7d 00 7f       	cmpb   $0x7f,0x0(%r13)
ffffffff80000ce3:	0f 85 f7 00 00 00    	jne    ffffffff80000de0 <elf_load+0x130>
ffffffff80000ce9:	41 80 7d 01 45       	cmpb   $0x45,0x1(%r13)
ffffffff80000cee:	0f 85 ec 00 00 00    	jne    ffffffff80000de0 <elf_load+0x130>
ffffffff80000cf4:	e8 a7 0c 00 00       	call   ffffffff800019a0 <vmm_create_address_space>
ffffffff80000cf9:	66 41 83 7d 38 00    	cmpw   $0x0,0x38(%r13)
ffffffff80000cff:	48 89 c5             	mov    %rax,%rbp
ffffffff80000d02:	0f 84 aa 00 00 00    	je     ffffffff80000db2 <elf_load+0x102>
ffffffff80000d08:	45 31 f6             	xor    %r14d,%r14d
ffffffff80000d0b:	0f 1f 44 00 00       	nopl   0x0(%rax,%rax,1)
ffffffff80000d10:	41 0f b7 5d 36       	movzwl 0x36(%r13),%ebx
ffffffff80000d15:	41 0f af de          	imul   %r14d,%ebx
ffffffff80000d19:	48 63 db             	movslq %ebx,%rbx
ffffffff80000d1c:	49 03 5d 20          	add    0x20(%r13),%rbx
ffffffff80000d20:	4c 01 eb             	add    %r13,%rbx
ffffffff80000d23:	83 3b 01             	cmpl   $0x1,(%rbx)
ffffffff80000d26:	75 78                	jne    ffffffff80000da0 <elf_load+0xf0>
ffffffff80000d28:	48 8b 43 28          	mov    0x28(%rbx),%rax
ffffffff80000d2c:	48 8d 88 ff 0f 00 00 	lea    0xfff(%rax),%rcx
ffffffff80000d33:	48 c1 e9 0c          	shr    $0xc,%rcx
ffffffff80000d37:	89 cf                	mov    %ecx,%edi
ffffffff80000d39:	49 89 cc             	mov    %rcx,%r12
ffffffff80000d3c:	e8 6f 1c 00 00       	call   ffffffff800029b0 <pmm_alloc_pages>
ffffffff80000d41:	48 8b 73 10          	mov    0x10(%rbx),%rsi
ffffffff80000d45:	44 89 e1             	mov    %r12d,%ecx
ffffffff80000d48:	48 89 ef             	mov    %rbp,%rdi
ffffffff80000d4b:	49 89 c7             	mov    %rax,%r15
ffffffff80000d4e:	8b 43 04             	mov    0x4(%rbx),%eax
ffffffff80000d51:	4c 89 fa             	mov    %r15,%rdx
ffffffff80000d54:	83 e0 02             	and    $0x2,%eax
ffffffff80000d57:	83 f8 01             	cmp    $0x1,%eax
ffffffff80000d5a:	48 19 c0             	sbb    %rax,%rax
ffffffff80000d5d:	48 83 e0 fe          	and    $0xfffffffffffffffe,%rax
ffffffff80000d61:	4c 8d 40 07          	lea    0x7(%rax),%r8
ffffffff80000d65:	e8 36 0b 00 00       	call   ffffffff800018a0 <vmm_map_pages>
ffffffff80000d6a:	48 8b 73 08          	mov    0x8(%rbx),%rsi
ffffffff80000d6e:	48 8b 53 20          	mov    0x20(%rbx),%rdx
ffffffff80000d72:	48 b8 00 00 00 00 00 	movabs $0xffff800000000000,%rax
ffffffff80000d79:	80 ff ff 
ffffffff80000d7c:	49 01 c7             	add    %rax,%r15
ffffffff80000d7f:	4c 01 ee             	add    %r13,%rsi
ffffffff80000d82:	4c 89 ff             	mov    %r15,%rdi
ffffffff80000d85:	e8 76 15 00 00       	call   ffffffff80002300 <memcpy8>
ffffffff80000d8a:	48 8b 43 20          	mov    0x20(%rbx),%rax
ffffffff80000d8e:	48 8b 53 28          	mov    0x28(%rbx),%rdx
ffffffff80000d92:	31 f6                	xor    %esi,%esi
ffffffff80000d94:	48 29 c2             	sub    %rax,%rdx
ffffffff80000d97:	49 8d 3c 07          	lea    (%r15,%rax,1),%rdi
ffffffff80000d9b:	e8 30 15 00 00       	call   ffffffff800022d0 <memset8>
ffffffff80000da0:	41 0f b7 45 38       	movzwl 0x38(%r13),%eax
ffffffff80000da5:	41 83 c6 01          	add    $0x1,%r14d
ffffffff80000da9:	44 39 f0             	cmp    %r14d,%eax
ffffffff80000dac:	0f 8f 5e ff ff ff    	jg     ffffffff80000d10 <elf_load+0x60>
ffffffff80000db2:	49 8b 5d 18          	mov    0x18(%r13),%rbx
ffffffff80000db6:	4c 89 ef             	mov    %r13,%rdi
ffffffff80000db9:	e8 82 14 00 00       	call   ffffffff80002240 <kfree>
ffffffff80000dbe:	48 83 c4 08          	add    $0x8,%rsp
ffffffff80000dc2:	48 89 ef             	mov    %rbp,%rdi
ffffffff80000dc5:	48 89 de             	mov    %rbx,%rsi
ffffffff80000dc8:	5b                   	pop    %rbx
ffffffff80000dc9:	5d                   	pop    %rbp
ffffffff80000dca:	41 5c                	pop    %r12
ffffffff80000dcc:	41 5d                	pop    %r13
ffffffff80000dce:	41 5e                	pop    %r14
ffffffff80000dd0:	41 5f                	pop    %r15
ffffffff80000dd2:	e9 99 32 00 00       	jmp    ffffffff80004070 <task_create_user_from_space>
ffffffff80000dd7:	66 0f 1f 84 00 00 00 	nopw   0x0(%rax,%rax,1)
ffffffff80000dde:	00 00 
ffffffff80000de0:	48 83 c4 08          	add    $0x8,%rsp
ffffffff80000de4:	31 c0                	xor    %eax,%eax
ffffffff80000de6:	5b                   	pop    %rbx
ffffffff80000de7:	5d                   	pop    %rbp
ffffffff80000de8:	41 5c                	pop    %r12
ffffffff80000dea:	41 5d                	pop    %r13
ffffffff80000dec:	41 5e                	pop    %r14
ffffffff80000dee:	41 5f                	pop    %r15
ffffffff80000df0:	c3                   	ret
ffffffff80000df1:	66 2e 0f 1f 84 00 00 	cs nopw 0x0(%rax,%rax,1)
ffffffff80000df8:	00 00 00 
ffffffff80000dfb:	0f 1f 44 00 00       	nopl   0x0(%rax,%rax,1)

ffffffff80000e00 <next_cluster>:
ffffffff80000e00:	53                   	push   %rbx
ffffffff80000e01:	89 fb                	mov    %edi,%ebx
ffffffff80000e03:	8d 3c bd 00 00 00 00 	lea    0x0(,%rdi,4),%edi
ffffffff80000e0a:	be 01 00 00 00       	mov    $0x1,%esi
ffffffff80000e0f:	c1 ef 09             	shr    $0x9,%edi
ffffffff80000e12:	48 81 ec 00 02 00 00 	sub    $0x200,%rsp
ffffffff80000e19:	0f b7 05 ee 81 00 00 	movzwl 0x81ee(%rip),%eax        # ffffffff8000900e <g_bpb+0xe>
ffffffff80000e20:	48 89 e2             	mov    %rsp,%rdx
ffffffff80000e23:	01 c7                	add    %eax,%edi
ffffffff80000e25:	e8 d6 4e 00 00       	call   ffffffff80005d00 <ata_read>
ffffffff80000e2a:	48 8d 04 9d 00 00 00 	lea    0x0(,%rbx,4),%rax
ffffffff80000e31:	00 
ffffffff80000e32:	25 fc 01 00 00       	and    $0x1fc,%eax
ffffffff80000e37:	8b 04 04             	mov    (%rsp,%rax,1),%eax
ffffffff80000e3a:	48 81 c4 00 02 00 00 	add    $0x200,%rsp
ffffffff80000e41:	5b                   	pop    %rbx
ffffffff80000e42:	25 ff ff ff 0f       	and    $0xfffffff,%eax
ffffffff80000e47:	c3                   	ret
ffffffff80000e48:	0f 1f 84 00 00 00 00 	nopl   0x0(%rax,%rax,1)
ffffffff80000e4f:	00 

ffffffff80000e50 <read_BPB>:
ffffffff80000e50:	f3 0f 1e fa          	endbr64
ffffffff80000e54:	c3                   	ret
ffffffff80000e55:	66 66 2e 0f 1f 84 00 	data16 cs nopw 0x0(%rax,%rax,1)
ffffffff80000e5c:	00 00 00 00 

ffffffff80000e60 <fat32_open>:
ffffffff80000e60:	f3 0f 1e fa          	endbr64
ffffffff80000e64:	41 57                	push   %r15
ffffffff80000e66:	41 56                	push   %r14
ffffffff80000e68:	41 55                	push   %r13
ffffffff80000e6a:	4c 8d 6f 01          	lea    0x1(%rdi),%r13
ffffffff80000e6e:	41 54                	push   %r12
ffffffff80000e70:	55                   	push   %rbp
ffffffff80000e71:	53                   	push   %rbx
ffffffff80000e72:	48 81 ec 18 05 00 00 	sub    $0x518,%rsp
ffffffff80000e79:	8b 2d ad 81 00 00    	mov    0x81ad(%rip),%ebp        # ffffffff8000902c <g_bpb+0x2c>
ffffffff80000e7f:	41 0f b6 45 01       	movzbl 0x1(%r13),%eax
ffffffff80000e84:	4d 8d 75 01          	lea    0x1(%r13),%r14
ffffffff80000e88:	3c 2f                	cmp    $0x2f,%al
ffffffff80000e8a:	75 11                	jne    ffffffff80000e9d <fat32_open+0x3d>
ffffffff80000e8c:	eb 13                	jmp    ffffffff80000ea1 <fat32_open+0x41>
ffffffff80000e8e:	66 90                	xchg   %ax,%ax
ffffffff80000e90:	41 0f b6 46 01       	movzbl 0x1(%r14),%eax
ffffffff80000e95:	49 83 c6 01          	add    $0x1,%r14
ffffffff80000e99:	3c 2f                	cmp    $0x2f,%al
ffffffff80000e9b:	74 04                	je     ffffffff80000ea1 <fat32_open+0x41>
ffffffff80000e9d:	84 c0                	test   %al,%al
ffffffff80000e9f:	75 ef                	jne    ffffffff80000e90 <fat32_open+0x30>
ffffffff80000ea1:	81 fd f7 ff ff 0f    	cmp    $0xffffff7,%ebp
ffffffff80000ea7:	0f 87 55 02 00 00    	ja     ffffffff80001102 <fat32_open+0x2a2>
ffffffff80000ead:	4d 89 f7             	mov    %r14,%r15
ffffffff80000eb0:	4d 29 ef             	sub    %r13,%r15
ffffffff80000eb3:	41 8d 47 ff          	lea    -0x1(%r15),%eax
ffffffff80000eb7:	89 44 24 0c          	mov    %eax,0xc(%rsp)
ffffffff80000ebb:	0f b6 35 4b 81 00 00 	movzbl 0x814b(%rip),%esi        # ffffffff8000900d <g_bpb+0xd>
ffffffff80000ec2:	0f b6 1d 47 81 00 00 	movzbl 0x8147(%rip),%ebx        # ffffffff80009010 <g_bpb+0x10>
ffffffff80000ec9:	8d 45 fe             	lea    -0x2(%rbp),%eax
ffffffff80000ecc:	0f af 1d 51 81 00 00 	imul   0x8151(%rip),%ebx        # ffffffff80009024 <g_bpb+0x24>
ffffffff80000ed3:	0f b7 0d 34 81 00 00 	movzwl 0x8134(%rip),%ecx        # ffffffff8000900e <g_bpb+0xe>
ffffffff80000eda:	0f af c6             	imul   %esi,%eax
ffffffff80000edd:	01 cb                	add    %ecx,%ebx
ffffffff80000edf:	01 c3                	add    %eax,%ebx
ffffffff80000ee1:	40 84 f6             	test   %sil,%sil
ffffffff80000ee4:	0f 84 d4 01 00 00    	je     ffffffff800010be <fat32_open+0x25e>
ffffffff80000eea:	45 31 e4             	xor    %r12d,%r12d
ffffffff80000eed:	42 8d 3c 23          	lea    (%rbx,%r12,1),%edi
ffffffff80000ef1:	be 01 00 00 00       	mov    $0x1,%esi
ffffffff80000ef6:	48 8d 94 24 10 01 00 	lea    0x110(%rsp),%rdx
ffffffff80000efd:	00 
ffffffff80000efe:	e8 fd 4d 00 00       	call   ffffffff80005d00 <ata_read>
ffffffff80000f03:	44 8b 4c 24 0c       	mov    0xc(%rsp),%r9d
ffffffff80000f08:	48 8d bc 24 10 01 00 	lea    0x110(%rsp),%rdi
ffffffff80000f0f:	00 
ffffffff80000f10:	31 f6                	xor    %esi,%esi
ffffffff80000f12:	66 0f 1f 44 00 00    	nopw   0x0(%rax,%rax,1)
ffffffff80000f18:	0f b6 07             	movzbl (%rdi),%eax
ffffffff80000f1b:	84 c0                	test   %al,%al
ffffffff80000f1d:	0f 84 df 01 00 00    	je     ffffffff80001102 <fat32_open+0x2a2>
ffffffff80000f23:	3c e5                	cmp    $0xe5,%al
ffffffff80000f25:	0f 84 68 01 00 00    	je     ffffffff80001093 <fat32_open+0x233>
ffffffff80000f2b:	0f b6 57 0b          	movzbl 0xb(%rdi),%edx
ffffffff80000f2f:	80 fa 0f             	cmp    $0xf,%dl
ffffffff80000f32:	0f 84 b8 00 00 00    	je     ffffffff80000ff0 <fat32_open+0x190>
ffffffff80000f38:	83 e2 08             	and    $0x8,%edx
ffffffff80000f3b:	0f 85 52 01 00 00    	jne    ffffffff80001093 <fat32_open+0x233>
ffffffff80000f41:	45 85 ff             	test   %r15d,%r15d
ffffffff80000f44:	7e 5b                	jle    ffffffff80000fa1 <fat32_open+0x141>
ffffffff80000f46:	31 c0                	xor    %eax,%eax
ffffffff80000f48:	eb 2b                	jmp    ffffffff80000f75 <fat32_open+0x115>
ffffffff80000f4a:	66 0f 1f 44 00 00    	nopw   0x0(%rax,%rax,1)
ffffffff80000f50:	0f b6 4c 04 10       	movzbl 0x10(%rsp,%rax,1),%ecx
ffffffff80000f55:	80 f9 60             	cmp    $0x60,%cl
ffffffff80000f58:	0f 8f c2 01 00 00    	jg     ffffffff80001120 <fat32_open+0x2c0>
ffffffff80000f5e:	83 e9 20             	sub    $0x20,%ecx
ffffffff80000f61:	38 ca                	cmp    %cl,%dl
ffffffff80000f63:	0f 85 2a 01 00 00    	jne    ffffffff80001093 <fat32_open+0x233>
ffffffff80000f69:	48 8d 50 01          	lea    0x1(%rax),%rdx
ffffffff80000f6d:	49 39 c1             	cmp    %rax,%r9
ffffffff80000f70:	74 2f                	je     ffffffff80000fa1 <fat32_open+0x141>
ffffffff80000f72:	48 89 d0             	mov    %rdx,%rax
ffffffff80000f75:	41 0f b6 54 05 00    	movzbl 0x0(%r13,%rax,1),%edx
ffffffff80000f7b:	80 fa 60             	cmp    $0x60,%dl
ffffffff80000f7e:	7f d0                	jg     ffffffff80000f50 <fat32_open+0xf0>
ffffffff80000f80:	0f b6 4c 04 10       	movzbl 0x10(%rsp,%rax,1),%ecx
ffffffff80000f85:	44 8d 52 e0          	lea    -0x20(%rdx),%r10d
ffffffff80000f89:	44 8d 59 e0          	lea    -0x20(%rcx),%r11d
ffffffff80000f8d:	80 f9 61             	cmp    $0x61,%cl
ffffffff80000f90:	41 0f 4c cb          	cmovl  %r11d,%ecx
ffffffff80000f94:	41 38 ca             	cmp    %cl,%r10b
ffffffff80000f97:	0f 85 f6 00 00 00    	jne    ffffffff80001093 <fat32_open+0x233>
ffffffff80000f9d:	84 d2                	test   %dl,%dl
ffffffff80000f9f:	75 c8                	jne    ffffffff80000f69 <fat32_open+0x109>
ffffffff80000fa1:	41 80 3e 00          	cmpb   $0x0,(%r14)
ffffffff80000fa5:	0f 85 92 01 00 00    	jne    ffffffff8000113d <fat32_open+0x2dd>
ffffffff80000fab:	bf 08 00 00 00       	mov    $0x8,%edi
ffffffff80000fb0:	89 74 24 0c          	mov    %esi,0xc(%rsp)
ffffffff80000fb4:	e8 c7 10 00 00       	call   ffffffff80002080 <kmalloc>
ffffffff80000fb9:	8b 74 24 0c          	mov    0xc(%rsp),%esi
ffffffff80000fbd:	48 c1 e6 05          	shl    $0x5,%rsi
ffffffff80000fc1:	0f b7 94 34 24 01 00 	movzwl 0x124(%rsp,%rsi,1),%edx
ffffffff80000fc8:	00 
ffffffff80000fc9:	0f b7 8c 34 2a 01 00 	movzwl 0x12a(%rsp,%rsi,1),%ecx
ffffffff80000fd0:	00 
ffffffff80000fd1:	66 0f 6e 8c 34 2c 01 	movd   0x12c(%rsp,%rsi,1),%xmm1
ffffffff80000fd8:	00 00 
ffffffff80000fda:	c1 e2 10             	shl    $0x10,%edx
ffffffff80000fdd:	09 ca                	or     %ecx,%edx
ffffffff80000fdf:	66 0f 6e c2          	movd   %edx,%xmm0
ffffffff80000fe3:	66 0f 62 c1          	punpckldq %xmm1,%xmm0
ffffffff80000fe7:	66 0f d6 00          	movq   %xmm0,(%rax)
ffffffff80000feb:	e9 14 01 00 00       	jmp    ffffffff80001104 <fat32_open+0x2a4>
ffffffff80000ff0:	89 c2                	mov    %eax,%edx
ffffffff80000ff2:	83 e2 1f             	and    $0x1f,%edx
ffffffff80000ff5:	a8 40                	test   $0x40,%al
ffffffff80000ff7:	74 0d                	je     ffffffff80001006 <fat32_open+0x1a6>
ffffffff80000ff9:	8d 04 52             	lea    (%rdx,%rdx,2),%eax
ffffffff80000ffc:	8d 04 82             	lea    (%rdx,%rax,4),%eax
ffffffff80000fff:	48 98                	cltq
ffffffff80001001:	c6 44 04 10 00       	movb   $0x0,0x10(%rsp,%rax,1)
ffffffff80001006:	8d 42 ff             	lea    -0x1(%rdx),%eax
ffffffff80001009:	0f b6 4f 10          	movzbl 0x10(%rdi),%ecx
ffffffff8000100d:	8d 14 40             	lea    (%rax,%rax,2),%edx
ffffffff80001010:	8d 04 90             	lea    (%rax,%rdx,4),%eax
ffffffff80001013:	48 98                	cltq
ffffffff80001015:	48 8d 54 04 10       	lea    0x10(%rsp,%rax,1),%rdx
ffffffff8000101a:	0f b6 47 12          	movzbl 0x12(%rdi),%eax
ffffffff8000101e:	48 c1 e0 08          	shl    $0x8,%rax
ffffffff80001022:	48 09 c8             	or     %rcx,%rax
ffffffff80001025:	0f b6 4f 0e          	movzbl 0xe(%rdi),%ecx
ffffffff80001029:	48 c1 e0 08          	shl    $0x8,%rax
ffffffff8000102d:	48 09 c8             	or     %rcx,%rax
ffffffff80001030:	0f b6 4f 09          	movzbl 0x9(%rdi),%ecx
ffffffff80001034:	48 c1 e0 08          	shl    $0x8,%rax
ffffffff80001038:	48 09 c8             	or     %rcx,%rax
ffffffff8000103b:	0f b6 4f 07          	movzbl 0x7(%rdi),%ecx
ffffffff8000103f:	48 c1 e0 08          	shl    $0x8,%rax
ffffffff80001043:	48 09 c8             	or     %rcx,%rax
ffffffff80001046:	0f b6 4f 05          	movzbl 0x5(%rdi),%ecx
ffffffff8000104a:	48 c1 e0 08          	shl    $0x8,%rax
ffffffff8000104e:	48 09 c8             	or     %rcx,%rax
ffffffff80001051:	0f b6 4f 03          	movzbl 0x3(%rdi),%ecx
ffffffff80001055:	48 c1 e0 08          	shl    $0x8,%rax
ffffffff80001059:	48 09 c8             	or     %rcx,%rax
ffffffff8000105c:	0f b6 4f 01          	movzbl 0x1(%rdi),%ecx
ffffffff80001060:	48 c1 e0 08          	shl    $0x8,%rax
ffffffff80001064:	48 09 c8             	or     %rcx,%rax
ffffffff80001067:	0f b6 4f 18          	movzbl 0x18(%rdi),%ecx
ffffffff8000106b:	48 89 02             	mov    %rax,(%rdx)
ffffffff8000106e:	0f b6 47 1c          	movzbl 0x1c(%rdi),%eax
ffffffff80001072:	c1 e0 08             	shl    $0x8,%eax
ffffffff80001075:	09 c8                	or     %ecx,%eax
ffffffff80001077:	0f b6 4f 16          	movzbl 0x16(%rdi),%ecx
ffffffff8000107b:	c1 e0 08             	shl    $0x8,%eax
ffffffff8000107e:	09 c8                	or     %ecx,%eax
ffffffff80001080:	0f b6 4f 14          	movzbl 0x14(%rdi),%ecx
ffffffff80001084:	c1 e0 08             	shl    $0x8,%eax
ffffffff80001087:	09 c8                	or     %ecx,%eax
ffffffff80001089:	89 42 08             	mov    %eax,0x8(%rdx)
ffffffff8000108c:	0f b7 47 1e          	movzwl 0x1e(%rdi),%eax
ffffffff80001090:	88 42 0c             	mov    %al,0xc(%rdx)
ffffffff80001093:	83 c6 01             	add    $0x1,%esi
ffffffff80001096:	48 83 c7 20          	add    $0x20,%rdi
ffffffff8000109a:	83 fe 10             	cmp    $0x10,%esi
ffffffff8000109d:	0f 85 75 fe ff ff    	jne    ffffffff80000f18 <fat32_open+0xb8>
ffffffff800010a3:	0f b6 05 63 7f 00 00 	movzbl 0x7f63(%rip),%eax        # ffffffff8000900d <g_bpb+0xd>
ffffffff800010aa:	41 83 c4 01          	add    $0x1,%r12d
ffffffff800010ae:	41 39 c4             	cmp    %eax,%r12d
ffffffff800010b1:	0f 82 36 fe ff ff    	jb     ffffffff80000eed <fat32_open+0x8d>
ffffffff800010b7:	0f b7 0d 50 7f 00 00 	movzwl 0x7f50(%rip),%ecx        # ffffffff8000900e <g_bpb+0xe>
ffffffff800010be:	8d 3c ad 00 00 00 00 	lea    0x0(,%rbp,4),%edi
ffffffff800010c5:	48 8d 94 24 10 03 00 	lea    0x310(%rsp),%rdx
ffffffff800010cc:	00 
ffffffff800010cd:	be 01 00 00 00       	mov    $0x1,%esi
ffffffff800010d2:	c1 ef 09             	shr    $0x9,%edi
ffffffff800010d5:	01 cf                	add    %ecx,%edi
ffffffff800010d7:	e8 24 4c 00 00       	call   ffffffff80005d00 <ata_read>
ffffffff800010dc:	48 8d 04 ad 00 00 00 	lea    0x0(,%rbp,4),%rax
ffffffff800010e3:	00 
ffffffff800010e4:	25 fc 01 00 00       	and    $0x1fc,%eax
ffffffff800010e9:	8b ac 04 10 03 00 00 	mov    0x310(%rsp,%rax,1),%ebp
ffffffff800010f0:	81 e5 ff ff ff 0f    	and    $0xfffffff,%ebp
ffffffff800010f6:	81 fd f7 ff ff 0f    	cmp    $0xffffff7,%ebp
ffffffff800010fc:	0f 86 b9 fd ff ff    	jbe    ffffffff80000ebb <fat32_open+0x5b>
ffffffff80001102:	31 c0                	xor    %eax,%eax
ffffffff80001104:	48 81 c4 18 05 00 00 	add    $0x518,%rsp
ffffffff8000110b:	5b                   	pop    %rbx
ffffffff8000110c:	5d                   	pop    %rbp
ffffffff8000110d:	41 5c                	pop    %r12
ffffffff8000110f:	41 5d                	pop    %r13
ffffffff80001111:	41 5e                	pop    %r14
ffffffff80001113:	41 5f                	pop    %r15
ffffffff80001115:	c3                   	ret
ffffffff80001116:	66 2e 0f 1f 84 00 00 	cs nopw 0x0(%rax,%rax,1)
ffffffff8000111d:	00 00 00 
ffffffff80001120:	38 d1                	cmp    %dl,%cl
ffffffff80001122:	0f 84 41 fe ff ff    	je     ffffffff80000f69 <fat32_open+0x109>
ffffffff80001128:	83 c6 01             	add    $0x1,%esi
ffffffff8000112b:	48 83 c7 20          	add    $0x20,%rdi
ffffffff8000112f:	83 fe 10             	cmp    $0x10,%esi
ffffffff80001132:	0f 85 e0 fd ff ff    	jne    ffffffff80000f18 <fat32_open+0xb8>
ffffffff80001138:	e9 66 ff ff ff       	jmp    ffffffff800010a3 <fat32_open+0x243>
ffffffff8000113d:	89 f0                	mov    %esi,%eax
ffffffff8000113f:	4d 8d 6e 01          	lea    0x1(%r14),%r13
ffffffff80001143:	48 c1 e0 05          	shl    $0x5,%rax
ffffffff80001147:	0f b7 ac 04 24 01 00 	movzwl 0x124(%rsp,%rax,1),%ebp
ffffffff8000114e:	00 
ffffffff8000114f:	0f b7 84 04 2a 01 00 	movzwl 0x12a(%rsp,%rax,1),%eax
ffffffff80001156:	00 
ffffffff80001157:	c1 e5 10             	shl    $0x10,%ebp
ffffffff8000115a:	09 c5                	or     %eax,%ebp
ffffffff8000115c:	e9 1e fd ff ff       	jmp    ffffffff80000e7f <fat32_open+0x1f>
ffffffff80001161:	66 66 2e 0f 1f 84 00 	data16 cs nopw 0x0(%rax,%rax,1)
ffffffff80001168:	00 00 00 00 
ffffffff8000116c:	0f 1f 40 00          	nopl   0x0(%rax)

ffffffff80001170 <fat32_read>:
ffffffff80001170:	f3 0f 1e fa          	endbr64
ffffffff80001174:	41 57                	push   %r15
ffffffff80001176:	41 56                	push   %r14
ffffffff80001178:	41 55                	push   %r13
ffffffff8000117a:	41 89 d5             	mov    %edx,%r13d
ffffffff8000117d:	41 54                	push   %r12
ffffffff8000117f:	55                   	push   %rbp
ffffffff80001180:	53                   	push   %rbx
ffffffff80001181:	48 89 fb             	mov    %rdi,%rbx
ffffffff80001184:	48 83 ec 18          	sub    $0x18,%rsp
ffffffff80001188:	44 0f b6 25 7d 7e 00 	movzbl 0x7e7d(%rip),%r12d        # ffffffff8000900d <g_bpb+0xd>
ffffffff8000118f:	00 
ffffffff80001190:	48 89 74 24 08       	mov    %rsi,0x8(%rsp)
ffffffff80001195:	41 c1 e4 09          	shl    $0x9,%r12d
ffffffff80001199:	49 63 fc             	movslq %r12d,%rdi
ffffffff8000119c:	e8 df 0e 00 00       	call   ffffffff80002080 <kmalloc>
ffffffff800011a1:	44 8b 3b             	mov    (%rbx),%r15d
ffffffff800011a4:	31 db                	xor    %ebx,%ebx
ffffffff800011a6:	48 89 c5             	mov    %rax,%rbp
ffffffff800011a9:	41 81 ff f7 ff ff 0f 	cmp    $0xffffff7,%r15d
ffffffff800011b0:	77 7a                	ja     ffffffff8000122c <fat32_read+0xbc>
ffffffff800011b2:	45 85 ed             	test   %r13d,%r13d
ffffffff800011b5:	74 75                	je     ffffffff8000122c <fat32_read+0xbc>
ffffffff800011b7:	66 0f 1f 84 00 00 00 	nopw   0x0(%rax,%rax,1)
ffffffff800011be:	00 00 
ffffffff800011c0:	0f b6 3d 49 7e 00 00 	movzbl 0x7e49(%rip),%edi        # ffffffff80009010 <g_bpb+0x10>
ffffffff800011c7:	0f af 3d 56 7e 00 00 	imul   0x7e56(%rip),%edi        # ffffffff80009024 <g_bpb+0x24>
ffffffff800011ce:	48 89 ea             	mov    %rbp,%rdx
ffffffff800011d1:	0f b7 05 36 7e 00 00 	movzwl 0x7e36(%rip),%eax        # ffffffff8000900e <g_bpb+0xe>
ffffffff800011d8:	0f b6 35 2e 7e 00 00 	movzbl 0x7e2e(%rip),%esi        # ffffffff8000900d <g_bpb+0xd>
ffffffff800011df:	01 c7                	add    %eax,%edi
ffffffff800011e1:	41 8d 47 fe          	lea    -0x2(%r15),%eax
ffffffff800011e5:	0f af c6             	imul   %esi,%eax
ffffffff800011e8:	01 c7                	add    %eax,%edi
ffffffff800011ea:	e8 11 4b 00 00       	call   ffffffff80005d00 <ata_read>
ffffffff800011ef:	44 89 e8             	mov    %r13d,%eax
ffffffff800011f2:	89 df                	mov    %ebx,%edi
ffffffff800011f4:	48 89 ee             	mov    %rbp,%rsi
ffffffff800011f7:	29 d8                	sub    %ebx,%eax
ffffffff800011f9:	44 39 e0             	cmp    %r12d,%eax
ffffffff800011fc:	41 0f 47 c4          	cmova  %r12d,%eax
ffffffff80001200:	89 c2                	mov    %eax,%edx
ffffffff80001202:	48 8b 44 24 08       	mov    0x8(%rsp),%rax
ffffffff80001207:	49 89 d6             	mov    %rdx,%r14
ffffffff8000120a:	48 01 c7             	add    %rax,%rdi
ffffffff8000120d:	44 01 f3             	add    %r14d,%ebx
ffffffff80001210:	e8 eb 10 00 00       	call   ffffffff80002300 <memcpy8>
ffffffff80001215:	44 89 ff             	mov    %r15d,%edi
ffffffff80001218:	e8 e3 fb ff ff       	call   ffffffff80000e00 <next_cluster>
ffffffff8000121d:	41 89 c7             	mov    %eax,%r15d
ffffffff80001220:	3d f7 ff ff 0f       	cmp    $0xffffff7,%eax
ffffffff80001225:	77 05                	ja     ffffffff8000122c <fat32_read+0xbc>
ffffffff80001227:	44 39 eb             	cmp    %r13d,%ebx
ffffffff8000122a:	72 94                	jb     ffffffff800011c0 <fat32_read+0x50>
ffffffff8000122c:	48 89 ef             	mov    %rbp,%rdi
ffffffff8000122f:	e8 0c 10 00 00       	call   ffffffff80002240 <kfree>
ffffffff80001234:	48 83 c4 18          	add    $0x18,%rsp
ffffffff80001238:	89 d8                	mov    %ebx,%eax
ffffffff8000123a:	5b                   	pop    %rbx
ffffffff8000123b:	5d                   	pop    %rbp
ffffffff8000123c:	41 5c                	pop    %r12
ffffffff8000123e:	41 5d                	pop    %r13
ffffffff80001240:	41 5e                	pop    %r14
ffffffff80001242:	41 5f                	pop    %r15
ffffffff80001244:	c3                   	ret
ffffffff80001245:	66 66 2e 0f 1f 84 00 	data16 cs nopw 0x0(%rax,%rax,1)
ffffffff8000124c:	00 00 00 00 

ffffffff80001250 <fat32_list_files>:
ffffffff80001250:	f3 0f 1e fa          	endbr64
ffffffff80001254:	41 57                	push   %r15
ffffffff80001256:	41 56                	push   %r14
ffffffff80001258:	41 55                	push   %r13
ffffffff8000125a:	4c 8d 6f 01          	lea    0x1(%rdi),%r13
ffffffff8000125e:	41 54                	push   %r12
ffffffff80001260:	55                   	push   %rbp
ffffffff80001261:	53                   	push   %rbx
ffffffff80001262:	48 81 ec 18 05 00 00 	sub    $0x518,%rsp
ffffffff80001269:	8b 2d bd 7d 00 00    	mov    0x7dbd(%rip),%ebp        # ffffffff8000902c <g_bpb+0x2c>
ffffffff8000126f:	41 0f b6 45 01       	movzbl 0x1(%r13),%eax
ffffffff80001274:	4d 8d 75 01          	lea    0x1(%r13),%r14
ffffffff80001278:	84 c0                	test   %al,%al
ffffffff8000127a:	74 15                	je     ffffffff80001291 <fat32_list_files+0x41>
ffffffff8000127c:	3c 2f                	cmp    $0x2f,%al
ffffffff8000127e:	74 11                	je     ffffffff80001291 <fat32_list_files+0x41>
ffffffff80001280:	41 0f b6 46 01       	movzbl 0x1(%r14),%eax
ffffffff80001285:	49 83 c6 01          	add    $0x1,%r14
ffffffff80001289:	3c 2f                	cmp    $0x2f,%al
ffffffff8000128b:	74 04                	je     ffffffff80001291 <fat32_list_files+0x41>
ffffffff8000128d:	84 c0                	test   %al,%al
ffffffff8000128f:	75 ef                	jne    ffffffff80001280 <fat32_list_files+0x30>
ffffffff80001291:	81 fd f7 ff ff 0f    	cmp    $0xffffff7,%ebp
ffffffff80001297:	0f 87 aa 02 00 00    	ja     ffffffff80001547 <fat32_list_files+0x2f7>
ffffffff8000129d:	4d 89 f7             	mov    %r14,%r15
ffffffff800012a0:	4d 29 ef             	sub    %r13,%r15
ffffffff800012a3:	41 8d 47 ff          	lea    -0x1(%r15),%eax
ffffffff800012a7:	89 44 24 0c          	mov    %eax,0xc(%rsp)
ffffffff800012ab:	0f b6 35 5b 7d 00 00 	movzbl 0x7d5b(%rip),%esi        # ffffffff8000900d <g_bpb+0xd>
ffffffff800012b2:	0f b6 1d 57 7d 00 00 	movzbl 0x7d57(%rip),%ebx        # ffffffff80009010 <g_bpb+0x10>
ffffffff800012b9:	8d 45 fe             	lea    -0x2(%rbp),%eax
ffffffff800012bc:	0f af 1d 61 7d 00 00 	imul   0x7d61(%rip),%ebx        # ffffffff80009024 <g_bpb+0x24>
ffffffff800012c3:	0f b7 0d 44 7d 00 00 	movzwl 0x7d44(%rip),%ecx        # ffffffff8000900e <g_bpb+0xe>
ffffffff800012ca:	0f af c6             	imul   %esi,%eax
ffffffff800012cd:	01 cb                	add    %ecx,%ebx
ffffffff800012cf:	01 c3                	add    %eax,%ebx
ffffffff800012d1:	40 84 f6             	test   %sil,%sil
ffffffff800012d4:	0f 84 d4 01 00 00    	je     ffffffff800014ae <fat32_list_files+0x25e>
ffffffff800012da:	45 31 e4             	xor    %r12d,%r12d
ffffffff800012dd:	42 8d 3c 23          	lea    (%rbx,%r12,1),%edi
ffffffff800012e1:	be 01 00 00 00       	mov    $0x1,%esi
ffffffff800012e6:	48 8d 94 24 10 01 00 	lea    0x110(%rsp),%rdx
ffffffff800012ed:	00 
ffffffff800012ee:	e8 0d 4a 00 00       	call   ffffffff80005d00 <ata_read>
ffffffff800012f3:	44 8b 4c 24 0c       	mov    0xc(%rsp),%r9d
ffffffff800012f8:	48 8d bc 24 10 01 00 	lea    0x110(%rsp),%rdi
ffffffff800012ff:	00 
ffffffff80001300:	31 f6                	xor    %esi,%esi
ffffffff80001302:	66 0f 1f 44 00 00    	nopw   0x0(%rax,%rax,1)
ffffffff80001308:	0f b6 07             	movzbl (%rdi),%eax
ffffffff8000130b:	84 c0                	test   %al,%al
ffffffff8000130d:	0f 84 05 02 00 00    	je     ffffffff80001518 <fat32_list_files+0x2c8>
ffffffff80001313:	3c e5                	cmp    $0xe5,%al
ffffffff80001315:	0f 84 68 01 00 00    	je     ffffffff80001483 <fat32_list_files+0x233>
ffffffff8000131b:	0f b6 57 0b          	movzbl 0xb(%rdi),%edx
ffffffff8000131f:	80 fa 0f             	cmp    $0xf,%dl
ffffffff80001322:	0f 84 b8 00 00 00    	je     ffffffff800013e0 <fat32_list_files+0x190>
ffffffff80001328:	83 e2 08             	and    $0x8,%edx
ffffffff8000132b:	0f 85 52 01 00 00    	jne    ffffffff80001483 <fat32_list_files+0x233>
ffffffff80001331:	45 85 ff             	test   %r15d,%r15d
ffffffff80001334:	7e 5b                	jle    ffffffff80001391 <fat32_list_files+0x141>
ffffffff80001336:	31 c0                	xor    %eax,%eax
ffffffff80001338:	eb 2b                	jmp    ffffffff80001365 <fat32_list_files+0x115>
ffffffff8000133a:	66 0f 1f 44 00 00    	nopw   0x0(%rax,%rax,1)
ffffffff80001340:	0f b6 4c 04 10       	movzbl 0x10(%rsp,%rax,1),%ecx
ffffffff80001345:	80 f9 60             	cmp    $0x60,%cl
ffffffff80001348:	0f 8f aa 01 00 00    	jg     ffffffff800014f8 <fat32_list_files+0x2a8>
ffffffff8000134e:	83 e9 20             	sub    $0x20,%ecx
ffffffff80001351:	38 ca                	cmp    %cl,%dl
ffffffff80001353:	0f 85 2a 01 00 00    	jne    ffffffff80001483 <fat32_list_files+0x233>
ffffffff80001359:	48 8d 50 01          	lea    0x1(%rax),%rdx
ffffffff8000135d:	49 39 c1             	cmp    %rax,%r9
ffffffff80001360:	74 2f                	je     ffffffff80001391 <fat32_list_files+0x141>
ffffffff80001362:	48 89 d0             	mov    %rdx,%rax
ffffffff80001365:	41 0f b6 54 05 00    	movzbl 0x0(%r13,%rax,1),%edx
ffffffff8000136b:	80 fa 60             	cmp    $0x60,%dl
ffffffff8000136e:	7f d0                	jg     ffffffff80001340 <fat32_list_files+0xf0>
ffffffff80001370:	0f b6 4c 04 10       	movzbl 0x10(%rsp,%rax,1),%ecx
ffffffff80001375:	44 8d 52 e0          	lea    -0x20(%rdx),%r10d
ffffffff80001379:	44 8d 59 e0          	lea    -0x20(%rcx),%r11d
ffffffff8000137d:	80 f9 61             	cmp    $0x61,%cl
ffffffff80001380:	41 0f 4c cb          	cmovl  %r11d,%ecx
ffffffff80001384:	41 38 ca             	cmp    %cl,%r10b
ffffffff80001387:	0f 85 f6 00 00 00    	jne    ffffffff80001483 <fat32_list_files+0x233>
ffffffff8000138d:	84 d2                	test   %dl,%dl
ffffffff8000138f:	75 c8                	jne    ffffffff80001359 <fat32_list_files+0x109>
ffffffff80001391:	41 80 3e 00          	cmpb   $0x0,(%r14)
ffffffff80001395:	0f 85 91 01 00 00    	jne    ffffffff8000152c <fat32_list_files+0x2dc>
ffffffff8000139b:	bf 08 00 00 00       	mov    $0x8,%edi
ffffffff800013a0:	89 74 24 0c          	mov    %esi,0xc(%rsp)
ffffffff800013a4:	e8 d7 0c 00 00       	call   ffffffff80002080 <kmalloc>
ffffffff800013a9:	8b 74 24 0c          	mov    0xc(%rsp),%esi
ffffffff800013ad:	48 c1 e6 05          	shl    $0x5,%rsi
ffffffff800013b1:	0f b7 94 34 24 01 00 	movzwl 0x124(%rsp,%rsi,1),%edx
ffffffff800013b8:	00 
ffffffff800013b9:	0f b7 8c 34 2a 01 00 	movzwl 0x12a(%rsp,%rsi,1),%ecx
ffffffff800013c0:	00 
ffffffff800013c1:	66 0f 6e 8c 34 2c 01 	movd   0x12c(%rsp,%rsi,1),%xmm1
ffffffff800013c8:	00 00 
ffffffff800013ca:	c1 e2 10             	shl    $0x10,%edx
ffffffff800013cd:	09 ca                	or     %ecx,%edx
ffffffff800013cf:	66 0f 6e c2          	movd   %edx,%xmm0
ffffffff800013d3:	66 0f 62 c1          	punpckldq %xmm1,%xmm0
ffffffff800013d7:	66 0f d6 00          	movq   %xmm0,(%rax)
ffffffff800013db:	e9 3a 01 00 00       	jmp    ffffffff8000151a <fat32_list_files+0x2ca>
ffffffff800013e0:	89 c2                	mov    %eax,%edx
ffffffff800013e2:	83 e2 1f             	and    $0x1f,%edx
ffffffff800013e5:	a8 40                	test   $0x40,%al
ffffffff800013e7:	74 0d                	je     ffffffff800013f6 <fat32_list_files+0x1a6>
ffffffff800013e9:	8d 04 52             	lea    (%rdx,%rdx,2),%eax
ffffffff800013ec:	8d 04 82             	lea    (%rdx,%rax,4),%eax
ffffffff800013ef:	48 98                	cltq
ffffffff800013f1:	c6 44 04 10 00       	movb   $0x0,0x10(%rsp,%rax,1)
ffffffff800013f6:	8d 42 ff             	lea    -0x1(%rdx),%eax
ffffffff800013f9:	0f b6 4f 10          	movzbl 0x10(%rdi),%ecx
ffffffff800013fd:	8d 14 40             	lea    (%rax,%rax,2),%edx
ffffffff80001400:	8d 04 90             	lea    (%rax,%rdx,4),%eax
ffffffff80001403:	48 98                	cltq
ffffffff80001405:	48 8d 54 04 10       	lea    0x10(%rsp,%rax,1),%rdx
ffffffff8000140a:	0f b6 47 12          	movzbl 0x12(%rdi),%eax
ffffffff8000140e:	48 c1 e0 08          	shl    $0x8,%rax
ffffffff80001412:	48 09 c8             	or     %rcx,%rax
ffffffff80001415:	0f b6 4f 0e          	movzbl 0xe(%rdi),%ecx
ffffffff80001419:	48 c1 e0 08          	shl    $0x8,%rax
ffffffff8000141d:	48 09 c8             	or     %rcx,%rax
ffffffff80001420:	0f b6 4f 09          	movzbl 0x9(%rdi),%ecx
ffffffff80001424:	48 c1 e0 08          	shl    $0x8,%rax
ffffffff80001428:	48 09 c8             	or     %rcx,%rax
ffffffff8000142b:	0f b6 4f 07          	movzbl 0x7(%rdi),%ecx
ffffffff8000142f:	48 c1 e0 08          	shl    $0x8,%rax
ffffffff80001433:	48 09 c8             	or     %rcx,%rax
ffffffff80001436:	0f b6 4f 05          	movzbl 0x5(%rdi),%ecx
ffffffff8000143a:	48 c1 e0 08          	shl    $0x8,%rax
ffffffff8000143e:	48 09 c8             	or     %rcx,%rax
ffffffff80001441:	0f b6 4f 03          	movzbl 0x3(%rdi),%ecx
ffffffff80001445:	48 c1 e0 08          	shl    $0x8,%rax
ffffffff80001449:	48 09 c8             	or     %rcx,%rax
ffffffff8000144c:	0f b6 4f 01          	movzbl 0x1(%rdi),%ecx
ffffffff80001450:	48 c1 e0 08          	shl    $0x8,%rax
ffffffff80001454:	48 09 c8             	or     %rcx,%rax
ffffffff80001457:	0f b6 4f 18          	movzbl 0x18(%rdi),%ecx
ffffffff8000145b:	48 89 02             	mov    %rax,(%rdx)
ffffffff8000145e:	0f b6 47 1c          	movzbl 0x1c(%rdi),%eax
ffffffff80001462:	c1 e0 08             	shl    $0x8,%eax
ffffffff80001465:	09 c8                	or     %ecx,%eax
ffffffff80001467:	0f b6 4f 16          	movzbl 0x16(%rdi),%ecx
ffffffff8000146b:	c1 e0 08             	shl    $0x8,%eax
ffffffff8000146e:	09 c8                	or     %ecx,%eax
ffffffff80001470:	0f b6 4f 14          	movzbl 0x14(%rdi),%ecx
ffffffff80001474:	c1 e0 08             	shl    $0x8,%eax
ffffffff80001477:	09 c8                	or     %ecx,%eax
ffffffff80001479:	89 42 08             	mov    %eax,0x8(%rdx)
ffffffff8000147c:	0f b7 47 1e          	movzwl 0x1e(%rdi),%eax
ffffffff80001480:	88 42 0c             	mov    %al,0xc(%rdx)
ffffffff80001483:	83 c6 01             	add    $0x1,%esi
ffffffff80001486:	48 83 c7 20          	add    $0x20,%rdi
ffffffff8000148a:	83 fe 10             	cmp    $0x10,%esi
ffffffff8000148d:	0f 85 75 fe ff ff    	jne    ffffffff80001308 <fat32_list_files+0xb8>
ffffffff80001493:	0f b6 05 73 7b 00 00 	movzbl 0x7b73(%rip),%eax        # ffffffff8000900d <g_bpb+0xd>
ffffffff8000149a:	41 83 c4 01          	add    $0x1,%r12d
ffffffff8000149e:	41 39 c4             	cmp    %eax,%r12d
ffffffff800014a1:	0f 82 36 fe ff ff    	jb     ffffffff800012dd <fat32_list_files+0x8d>
ffffffff800014a7:	0f b7 0d 60 7b 00 00 	movzwl 0x7b60(%rip),%ecx        # ffffffff8000900e <g_bpb+0xe>
ffffffff800014ae:	8d 3c ad 00 00 00 00 	lea    0x0(,%rbp,4),%edi
ffffffff800014b5:	48 8d 94 24 10 03 00 	lea    0x310(%rsp),%rdx
ffffffff800014bc:	00 
ffffffff800014bd:	be 01 00 00 00       	mov    $0x1,%esi
ffffffff800014c2:	c1 ef 09             	shr    $0x9,%edi
ffffffff800014c5:	01 cf                	add    %ecx,%edi
ffffffff800014c7:	e8 34 48 00 00       	call   ffffffff80005d00 <ata_read>
ffffffff800014cc:	48 8d 04 ad 00 00 00 	lea    0x0(,%rbp,4),%rax
ffffffff800014d3:	00 
ffffffff800014d4:	25 fc 01 00 00       	and    $0x1fc,%eax
ffffffff800014d9:	8b ac 04 10 03 00 00 	mov    0x310(%rsp,%rax,1),%ebp
ffffffff800014e0:	81 e5 ff ff ff 0f    	and    $0xfffffff,%ebp
ffffffff800014e6:	81 fd f7 ff ff 0f    	cmp    $0xffffff7,%ebp
ffffffff800014ec:	0f 86 b9 fd ff ff    	jbe    ffffffff800012ab <fat32_list_files+0x5b>
ffffffff800014f2:	eb 53                	jmp    ffffffff80001547 <fat32_list_files+0x2f7>
ffffffff800014f4:	0f 1f 40 00          	nopl   0x0(%rax)
ffffffff800014f8:	38 d1                	cmp    %dl,%cl
ffffffff800014fa:	0f 84 59 fe ff ff    	je     ffffffff80001359 <fat32_list_files+0x109>
ffffffff80001500:	83 c6 01             	add    $0x1,%esi
ffffffff80001503:	48 83 c7 20          	add    $0x20,%rdi
ffffffff80001507:	83 fe 10             	cmp    $0x10,%esi
ffffffff8000150a:	0f 85 f8 fd ff ff    	jne    ffffffff80001308 <fat32_list_files+0xb8>
ffffffff80001510:	eb 81                	jmp    ffffffff80001493 <fat32_list_files+0x243>
ffffffff80001512:	66 0f 1f 44 00 00    	nopw   0x0(%rax,%rax,1)
ffffffff80001518:	31 c0                	xor    %eax,%eax
ffffffff8000151a:	48 81 c4 18 05 00 00 	add    $0x518,%rsp
ffffffff80001521:	5b                   	pop    %rbx
ffffffff80001522:	5d                   	pop    %rbp
ffffffff80001523:	41 5c                	pop    %r12
ffffffff80001525:	41 5d                	pop    %r13
ffffffff80001527:	41 5e                	pop    %r14
ffffffff80001529:	41 5f                	pop    %r15
ffffffff8000152b:	c3                   	ret
ffffffff8000152c:	89 f0                	mov    %esi,%eax
ffffffff8000152e:	48 c1 e0 05          	shl    $0x5,%rax
ffffffff80001532:	0f b7 ac 04 24 01 00 	movzwl 0x124(%rsp,%rax,1),%ebp
ffffffff80001539:	00 
ffffffff8000153a:	0f b7 84 04 2a 01 00 	movzwl 0x12a(%rsp,%rax,1),%eax
ffffffff80001541:	00 
ffffffff80001542:	c1 e5 10             	shl    $0x10,%ebp
ffffffff80001545:	09 c5                	or     %eax,%ebp
ffffffff80001547:	4d 8d 6e 01          	lea    0x1(%r14),%r13
ffffffff8000154b:	e9 1f fd ff ff       	jmp    ffffffff8000126f <fat32_list_files+0x1f>

ffffffff80001550 <fat32_init>:
ffffffff80001550:	f3 0f 1e fa          	endbr64
ffffffff80001554:	48 83 ec 08          	sub    $0x8,%rsp
ffffffff80001558:	48 c7 c2 00 90 00 80 	mov    $0xffffffff80009000,%rdx
ffffffff8000155f:	be 01 00 00 00       	mov    $0x1,%esi
ffffffff80001564:	e8 97 47 00 00       	call   ffffffff80005d00 <ata_read>
ffffffff80001569:	48 83 c4 08          	add    $0x8,%rsp
ffffffff8000156d:	c3                   	ret
ffffffff8000156e:	66 90                	xchg   %ax,%ax

ffffffff80001570 <fat32_print_root>:
ffffffff80001570:	f3 0f 1e fa          	endbr64
ffffffff80001574:	41 57                	push   %r15
ffffffff80001576:	48 c7 c7 f8 67 00 80 	mov    $0xffffffff800067f8,%rdi
ffffffff8000157d:	41 56                	push   %r14
ffffffff8000157f:	41 55                	push   %r13
ffffffff80001581:	41 54                	push   %r12
ffffffff80001583:	55                   	push   %rbp
ffffffff80001584:	53                   	push   %rbx
ffffffff80001585:	48 81 ec 08 05 00 00 	sub    $0x508,%rsp
ffffffff8000158c:	e8 1f 43 00 00       	call   ffffffff800058b0 <serial_write_line>
ffffffff80001591:	44 8b 3d 94 7a 00 00 	mov    0x7a94(%rip),%r15d        # ffffffff8000902c <g_bpb+0x2c>
ffffffff80001598:	45 85 ff             	test   %r15d,%r15d
ffffffff8000159b:	0f 84 00 02 00 00    	je     ffffffff800017a1 <fat32_print_root+0x231>
ffffffff800015a1:	0f b6 35 65 7a 00 00 	movzbl 0x7a65(%rip),%esi        # ffffffff8000900d <g_bpb+0xd>
ffffffff800015a8:	44 0f b6 2d 60 7a 00 	movzbl 0x7a60(%rip),%r13d        # ffffffff80009010 <g_bpb+0x10>
ffffffff800015af:	00 
ffffffff800015b0:	41 8d 47 fe          	lea    -0x2(%r15),%eax
ffffffff800015b4:	44 0f af 2d 68 7a 00 	imul   0x7a68(%rip),%r13d        # ffffffff80009024 <g_bpb+0x24>
ffffffff800015bb:	00 
ffffffff800015bc:	0f b7 0d 4b 7a 00 00 	movzwl 0x7a4b(%rip),%ecx        # ffffffff8000900e <g_bpb+0xe>
ffffffff800015c3:	0f af c6             	imul   %esi,%eax
ffffffff800015c6:	41 01 cd             	add    %ecx,%r13d
ffffffff800015c9:	41 01 c5             	add    %eax,%r13d
ffffffff800015cc:	40 84 f6             	test   %sil,%sil
ffffffff800015cf:	0f 84 8b 01 00 00    	je     ffffffff80001760 <fat32_print_root+0x1f0>
ffffffff800015d5:	45 31 f6             	xor    %r14d,%r14d
ffffffff800015d8:	4c 8d a4 24 0b 03 00 	lea    0x30b(%rsp),%r12
ffffffff800015df:	00 
ffffffff800015e0:	43 8d 7c 35 00       	lea    0x0(%r13,%r14,1),%edi
ffffffff800015e5:	48 8d 94 24 00 01 00 	lea    0x100(%rsp),%rdx
ffffffff800015ec:	00 
ffffffff800015ed:	be 01 00 00 00       	mov    $0x1,%esi
ffffffff800015f2:	e8 09 47 00 00       	call   ffffffff80005d00 <ata_read>
ffffffff800015f7:	48 8d 9c 24 0b 01 00 	lea    0x10b(%rsp),%rbx
ffffffff800015fe:	00 
ffffffff800015ff:	e9 c2 00 00 00       	jmp    ffffffff800016c6 <fat32_print_root+0x156>
ffffffff80001604:	0f 1f 40 00          	nopl   0x0(%rax)
ffffffff80001608:	0f b6 53 f5          	movzbl -0xb(%rbx),%edx
ffffffff8000160c:	89 d1                	mov    %edx,%ecx
ffffffff8000160e:	89 d0                	mov    %edx,%eax
ffffffff80001610:	83 e1 1f             	and    $0x1f,%ecx
ffffffff80001613:	83 e0 1f             	and    $0x1f,%eax
ffffffff80001616:	83 e2 40             	and    $0x40,%edx
ffffffff80001619:	74 0d                	je     ffffffff80001628 <fat32_print_root+0xb8>
ffffffff8000161b:	8d 14 40             	lea    (%rax,%rax,2),%edx
ffffffff8000161e:	8d 14 90             	lea    (%rax,%rdx,4),%edx
ffffffff80001621:	48 63 d2             	movslq %edx,%rdx
ffffffff80001624:	c6 04 14 00          	movb   $0x0,(%rsp,%rdx,1)
ffffffff80001628:	83 e8 01             	sub    $0x1,%eax
ffffffff8000162b:	0f b6 73 05          	movzbl 0x5(%rbx),%esi
ffffffff8000162f:	8d 14 40             	lea    (%rax,%rax,2),%edx
ffffffff80001632:	8d 14 90             	lea    (%rax,%rdx,4),%edx
ffffffff80001635:	0f b6 43 07          	movzbl 0x7(%rbx),%eax
ffffffff80001639:	48 63 d2             	movslq %edx,%rdx
ffffffff8000163c:	48 c1 e0 08          	shl    $0x8,%rax
ffffffff80001640:	48 01 e2             	add    %rsp,%rdx
ffffffff80001643:	48 09 f0             	or     %rsi,%rax
ffffffff80001646:	0f b6 73 03          	movzbl 0x3(%rbx),%esi
ffffffff8000164a:	48 c1 e0 08          	shl    $0x8,%rax
ffffffff8000164e:	48 09 f0             	or     %rsi,%rax
ffffffff80001651:	0f b6 73 fe          	movzbl -0x2(%rbx),%esi
ffffffff80001655:	48 c1 e0 08          	shl    $0x8,%rax
ffffffff80001659:	48 09 f0             	or     %rsi,%rax
ffffffff8000165c:	0f b6 73 fc          	movzbl -0x4(%rbx),%esi
ffffffff80001660:	48 c1 e0 08          	shl    $0x8,%rax
ffffffff80001664:	48 09 f0             	or     %rsi,%rax
ffffffff80001667:	0f b6 73 fa          	movzbl -0x6(%rbx),%esi
ffffffff8000166b:	48 c1 e0 08          	shl    $0x8,%rax
ffffffff8000166f:	48 09 f0             	or     %rsi,%rax
ffffffff80001672:	0f b6 73 f8          	movzbl -0x8(%rbx),%esi
ffffffff80001676:	48 c1 e0 08          	shl    $0x8,%rax
ffffffff8000167a:	48 09 f0             	or     %rsi,%rax
ffffffff8000167d:	0f b6 73 f6          	movzbl -0xa(%rbx),%esi
ffffffff80001681:	48 c1 e0 08          	shl    $0x8,%rax
ffffffff80001685:	48 09 f0             	or     %rsi,%rax
ffffffff80001688:	0f b6 73 0d          	movzbl 0xd(%rbx),%esi
ffffffff8000168c:	48 89 02             	mov    %rax,(%rdx)
ffffffff8000168f:	0f b6 43 11          	movzbl 0x11(%rbx),%eax
ffffffff80001693:	c1 e0 08             	shl    $0x8,%eax
ffffffff80001696:	09 f0                	or     %esi,%eax
ffffffff80001698:	0f b6 73 0b          	movzbl 0xb(%rbx),%esi
ffffffff8000169c:	c1 e0 08             	shl    $0x8,%eax
ffffffff8000169f:	09 f0                	or     %esi,%eax
ffffffff800016a1:	0f b6 73 09          	movzbl 0x9(%rbx),%esi
ffffffff800016a5:	c1 e0 08             	shl    $0x8,%eax
ffffffff800016a8:	09 f0                	or     %esi,%eax
ffffffff800016aa:	89 42 08             	mov    %eax,0x8(%rdx)
ffffffff800016ad:	0f b7 43 13          	movzwl 0x13(%rbx),%eax
ffffffff800016b1:	88 42 0c             	mov    %al,0xc(%rdx)
ffffffff800016b4:	80 f9 01             	cmp    $0x1,%cl
ffffffff800016b7:	0f 84 13 01 00 00    	je     ffffffff800017d0 <fat32_print_root+0x260>
ffffffff800016bd:	48 83 c3 20          	add    $0x20,%rbx
ffffffff800016c1:	4c 39 e3             	cmp    %r12,%rbx
ffffffff800016c4:	74 7f                	je     ffffffff80001745 <fat32_print_root+0x1d5>
ffffffff800016c6:	80 7b f5 00          	cmpb   $0x0,-0xb(%rbx)
ffffffff800016ca:	0f 84 d1 00 00 00    	je     ffffffff800017a1 <fat32_print_root+0x231>
ffffffff800016d0:	bf 2a 00 00 00       	mov    $0x2a,%edi
ffffffff800016d5:	e8 56 41 00 00       	call   ffffffff80005830 <serial_write_char>
ffffffff800016da:	80 7b f5 e5          	cmpb   $0xe5,-0xb(%rbx)
ffffffff800016de:	0f 84 d4 00 00 00    	je     ffffffff800017b8 <fat32_print_root+0x248>
ffffffff800016e4:	0f b6 3b             	movzbl (%rbx),%edi
ffffffff800016e7:	40 80 ff 0f          	cmp    $0xf,%dil
ffffffff800016eb:	0f 84 17 ff ff ff    	je     ffffffff80001608 <fat32_print_root+0x98>
ffffffff800016f1:	e8 ca 42 00 00       	call   ffffffff800059c0 <serial_write_hex8>
ffffffff800016f6:	bf 20 00 00 00       	mov    $0x20,%edi
ffffffff800016fb:	48 8d 6b f5          	lea    -0xb(%rbx),%rbp
ffffffff800016ff:	e8 2c 41 00 00       	call   ffffffff80005830 <serial_write_char>
ffffffff80001704:	0f b6 7b f5          	movzbl -0xb(%rbx),%edi
ffffffff80001708:	e8 03 45 00 00       	call   ffffffff80005c10 <serial_write_bin8>
ffffffff8000170d:	bf 20 00 00 00       	mov    $0x20,%edi
ffffffff80001712:	e8 19 41 00 00       	call   ffffffff80005830 <serial_write_char>
ffffffff80001717:	66 0f 1f 84 00 00 00 	nopw   0x0(%rax,%rax,1)
ffffffff8000171e:	00 00 
ffffffff80001720:	0f be 7d 00          	movsbl 0x0(%rbp),%edi
ffffffff80001724:	48 83 c5 01          	add    $0x1,%rbp
ffffffff80001728:	e8 03 41 00 00       	call   ffffffff80005830 <serial_write_char>
ffffffff8000172d:	48 39 eb             	cmp    %rbp,%rbx
ffffffff80001730:	75 ee                	jne    ffffffff80001720 <fat32_print_root+0x1b0>
ffffffff80001732:	bf 0a 00 00 00       	mov    $0xa,%edi
ffffffff80001737:	48 83 c3 20          	add    $0x20,%rbx
ffffffff8000173b:	e8 f0 40 00 00       	call   ffffffff80005830 <serial_write_char>
ffffffff80001740:	4c 39 e3             	cmp    %r12,%rbx
ffffffff80001743:	75 81                	jne    ffffffff800016c6 <fat32_print_root+0x156>
ffffffff80001745:	0f b6 05 c1 78 00 00 	movzbl 0x78c1(%rip),%eax        # ffffffff8000900d <g_bpb+0xd>
ffffffff8000174c:	41 83 c6 01          	add    $0x1,%r14d
ffffffff80001750:	41 39 c6             	cmp    %eax,%r14d
ffffffff80001753:	0f 82 87 fe ff ff    	jb     ffffffff800015e0 <fat32_print_root+0x70>
ffffffff80001759:	0f b7 0d ae 78 00 00 	movzwl 0x78ae(%rip),%ecx        # ffffffff8000900e <g_bpb+0xe>
ffffffff80001760:	42 8d 3c bd 00 00 00 	lea    0x0(,%r15,4),%edi
ffffffff80001767:	00 
ffffffff80001768:	48 8d 94 24 00 03 00 	lea    0x300(%rsp),%rdx
ffffffff8000176f:	00 
ffffffff80001770:	be 01 00 00 00       	mov    $0x1,%esi
ffffffff80001775:	c1 ef 09             	shr    $0x9,%edi
ffffffff80001778:	01 cf                	add    %ecx,%edi
ffffffff8000177a:	e8 81 45 00 00       	call   ffffffff80005d00 <ata_read>
ffffffff8000177f:	4a 8d 04 bd 00 00 00 	lea    0x0(,%r15,4),%rax
ffffffff80001786:	00 
ffffffff80001787:	25 fc 01 00 00       	and    $0x1fc,%eax
ffffffff8000178c:	44 8b bc 04 00 03 00 	mov    0x300(%rsp,%rax,1),%r15d
ffffffff80001793:	00 
ffffffff80001794:	41 81 e7 ff ff ff 0f 	and    $0xfffffff,%r15d
ffffffff8000179b:	0f 85 00 fe ff ff    	jne    ffffffff800015a1 <fat32_print_root+0x31>
ffffffff800017a1:	48 81 c4 08 05 00 00 	add    $0x508,%rsp
ffffffff800017a8:	5b                   	pop    %rbx
ffffffff800017a9:	5d                   	pop    %rbp
ffffffff800017aa:	41 5c                	pop    %r12
ffffffff800017ac:	41 5d                	pop    %r13
ffffffff800017ae:	41 5e                	pop    %r14
ffffffff800017b0:	41 5f                	pop    %r15
ffffffff800017b2:	c3                   	ret
ffffffff800017b3:	0f 1f 44 00 00       	nopl   0x0(%rax,%rax,1)
ffffffff800017b8:	48 c7 c7 fe 67 00 80 	mov    $0xffffffff800067fe,%rdi
ffffffff800017bf:	e8 9c 40 00 00       	call   ffffffff80005860 <serial_write>
ffffffff800017c4:	e9 1b ff ff ff       	jmp    ffffffff800016e4 <fat32_print_root+0x174>
ffffffff800017c9:	0f 1f 80 00 00 00 00 	nopl   0x0(%rax)
ffffffff800017d0:	48 89 e7             	mov    %rsp,%rdi
ffffffff800017d3:	e8 88 40 00 00       	call   ffffffff80005860 <serial_write>
ffffffff800017d8:	e9 e0 fe ff ff       	jmp    ffffffff800016bd <fat32_print_root+0x14d>
ffffffff800017dd:	0f 1f 00             	nopl   (%rax)

ffffffff800017e0 <get_or_create>:
ffffffff800017e0:	48 8b 04 f7          	mov    (%rdi,%rsi,8),%rax
ffffffff800017e4:	a8 01                	test   $0x1,%al
ffffffff800017e6:	74 20                	je     ffffffff80001808 <get_or_create+0x28>
ffffffff800017e8:	48 ba 00 f0 ff ff ff 	movabs $0xffffffffff000,%rdx
ffffffff800017ef:	ff 0f 00 
ffffffff800017f2:	48 21 d0             	and    %rdx,%rax
ffffffff800017f5:	48 ba 00 00 00 00 00 	movabs $0xffff800000000000,%rdx
ffffffff800017fc:	80 ff ff 
ffffffff800017ff:	48 01 d0             	add    %rdx,%rax
ffffffff80001802:	c3                   	ret
ffffffff80001803:	0f 1f 44 00 00       	nopl   0x0(%rax,%rax,1)
ffffffff80001808:	41 55                	push   %r13
ffffffff8000180a:	31 c0                	xor    %eax,%eax
ffffffff8000180c:	49 89 d5             	mov    %rdx,%r13
ffffffff8000180f:	41 54                	push   %r12
ffffffff80001811:	49 89 f4             	mov    %rsi,%r12
ffffffff80001814:	55                   	push   %rbp
ffffffff80001815:	48 89 fd             	mov    %rdi,%rbp
ffffffff80001818:	53                   	push   %rbx
ffffffff80001819:	48 83 ec 08          	sub    $0x8,%rsp
ffffffff8000181d:	e8 9e 0f 00 00       	call   ffffffff800027c0 <pmm_alloc_page>
ffffffff80001822:	48 89 c3             	mov    %rax,%rbx
ffffffff80001825:	48 85 c0             	test   %rax,%rax
ffffffff80001828:	74 5e                	je     ffffffff80001888 <get_or_create+0xa8>
ffffffff8000182a:	48 b9 00 00 00 00 00 	movabs $0xffff800000000000,%rcx
ffffffff80001831:	80 ff ff 
ffffffff80001834:	66 0f ef c0          	pxor   %xmm0,%xmm0
ffffffff80001838:	48 ba 00 10 00 00 00 	movabs $0xffff800000001000,%rdx
ffffffff8000183f:	80 ff ff 
ffffffff80001842:	48 01 d9             	add    %rbx,%rcx
ffffffff80001845:	48 01 da             	add    %rbx,%rdx
ffffffff80001848:	48 89 c8             	mov    %rcx,%rax
ffffffff8000184b:	0f 11 01             	movups %xmm0,(%rcx)
ffffffff8000184e:	48 83 c1 20          	add    $0x20,%rcx
ffffffff80001852:	0f 11 41 f0          	movups %xmm0,-0x10(%rcx)
ffffffff80001856:	48 39 d1             	cmp    %rdx,%rcx
ffffffff80001859:	75 f0                	jne    ffffffff8000184b <get_or_create+0x6b>
ffffffff8000185b:	48 ba 00 f0 ff ff ff 	movabs $0xffffffffff000,%rdx
ffffffff80001862:	ff 0f 00 
ffffffff80001865:	48 21 d3             	and    %rdx,%rbx
ffffffff80001868:	4c 89 ea             	mov    %r13,%rdx
ffffffff8000186b:	83 e2 04             	and    $0x4,%edx
ffffffff8000186e:	48 09 d3             	or     %rdx,%rbx
ffffffff80001871:	48 83 cb 03          	or     $0x3,%rbx
ffffffff80001875:	4a 89 5c e5 00       	mov    %rbx,0x0(%rbp,%r12,8)
ffffffff8000187a:	48 83 c4 08          	add    $0x8,%rsp
ffffffff8000187e:	5b                   	pop    %rbx
ffffffff8000187f:	5d                   	pop    %rbp
ffffffff80001880:	41 5c                	pop    %r12
ffffffff80001882:	41 5d                	pop    %r13
ffffffff80001884:	c3                   	ret
ffffffff80001885:	0f 1f 00             	nopl   (%rax)
ffffffff80001888:	48 c7 c7 08 68 00 80 	mov    $0xffffffff80006808,%rdi
ffffffff8000188f:	e8 ac 19 00 00       	call   ffffffff80003240 <panic>
ffffffff80001894:	eb 94                	jmp    ffffffff8000182a <get_or_create+0x4a>
ffffffff80001896:	66 2e 0f 1f 84 00 00 	cs nopw 0x0(%rax,%rax,1)
ffffffff8000189d:	00 00 00 

ffffffff800018a0 <vmm_map_pages>:
ffffffff800018a0:	f3 0f 1e fa          	endbr64
ffffffff800018a4:	41 57                	push   %r15
ffffffff800018a6:	41 56                	push   %r14
ffffffff800018a8:	41 55                	push   %r13
ffffffff800018aa:	41 54                	push   %r12
ffffffff800018ac:	55                   	push   %rbp
ffffffff800018ad:	53                   	push   %rbx
ffffffff800018ae:	48 83 ec 18          	sub    $0x18,%rsp
ffffffff800018b2:	48 89 14 24          	mov    %rdx,(%rsp)
ffffffff800018b6:	48 89 4c 24 08       	mov    %rcx,0x8(%rsp)
ffffffff800018bb:	48 85 c9             	test   %rcx,%rcx
ffffffff800018be:	0f 84 a4 00 00 00    	je     ffffffff80001968 <vmm_map_pages+0xc8>
ffffffff800018c4:	49 89 ff             	mov    %rdi,%r15
ffffffff800018c7:	49 89 f5             	mov    %rsi,%r13
ffffffff800018ca:	4c 89 c5             	mov    %r8,%rbp
ffffffff800018cd:	49 89 f4             	mov    %rsi,%r12
ffffffff800018d0:	45 31 f6             	xor    %r14d,%r14d
ffffffff800018d3:	0f 1f 44 00 00       	nopl   0x0(%rax,%rax,1)
ffffffff800018d8:	4c 89 e6             	mov    %r12,%rsi
ffffffff800018db:	49 8b 7f 08          	mov    0x8(%r15),%rdi
ffffffff800018df:	48 89 ea             	mov    %rbp,%rdx
ffffffff800018e2:	48 8b 1c 24          	mov    (%rsp),%rbx
ffffffff800018e6:	48 c1 ee 27          	shr    $0x27,%rsi
ffffffff800018ea:	49 83 c6 01          	add    $0x1,%r14
ffffffff800018ee:	81 e6 ff 01 00 00    	and    $0x1ff,%esi
ffffffff800018f4:	4c 29 eb             	sub    %r13,%rbx
ffffffff800018f7:	e8 e4 fe ff ff       	call   ffffffff800017e0 <get_or_create>
ffffffff800018fc:	4c 89 e6             	mov    %r12,%rsi
ffffffff800018ff:	48 89 ea             	mov    %rbp,%rdx
ffffffff80001902:	4c 01 e3             	add    %r12,%rbx
ffffffff80001905:	48 c1 ee 1e          	shr    $0x1e,%rsi
ffffffff80001909:	48 89 c7             	mov    %rax,%rdi
ffffffff8000190c:	81 e6 ff 01 00 00    	and    $0x1ff,%esi
ffffffff80001912:	e8 c9 fe ff ff       	call   ffffffff800017e0 <get_or_create>
ffffffff80001917:	4c 89 e6             	mov    %r12,%rsi
ffffffff8000191a:	48 89 ea             	mov    %rbp,%rdx
ffffffff8000191d:	48 c1 ee 15          	shr    $0x15,%rsi
ffffffff80001921:	48 89 c7             	mov    %rax,%rdi
ffffffff80001924:	81 e6 ff 01 00 00    	and    $0x1ff,%esi
ffffffff8000192a:	e8 b1 fe ff ff       	call   ffffffff800017e0 <get_or_create>
ffffffff8000192f:	48 b9 00 f0 ff ff ff 	movabs $0xffffffffff000,%rcx
ffffffff80001936:	ff 0f 00 
ffffffff80001939:	48 89 c2             	mov    %rax,%rdx
ffffffff8000193c:	48 21 cb             	and    %rcx,%rbx
ffffffff8000193f:	4c 89 e0             	mov    %r12,%rax
ffffffff80001942:	49 81 c4 00 10 00 00 	add    $0x1000,%r12
ffffffff80001949:	48 c1 e8 0c          	shr    $0xc,%rax
ffffffff8000194d:	48 09 eb             	or     %rbp,%rbx
ffffffff80001950:	25 ff 01 00 00       	and    $0x1ff,%eax
ffffffff80001955:	48 83 cb 01          	or     $0x1,%rbx
ffffffff80001959:	48 89 1c c2          	mov    %rbx,(%rdx,%rax,8)
ffffffff8000195d:	4c 39 74 24 08       	cmp    %r14,0x8(%rsp)
ffffffff80001962:	0f 85 70 ff ff ff    	jne    ffffffff800018d8 <vmm_map_pages+0x38>
ffffffff80001968:	48 83 c4 18          	add    $0x18,%rsp
ffffffff8000196c:	5b                   	pop    %rbx
ffffffff8000196d:	5d                   	pop    %rbp
ffffffff8000196e:	41 5c                	pop    %r12
ffffffff80001970:	41 5d                	pop    %r13
ffffffff80001972:	41 5e                	pop    %r14
ffffffff80001974:	41 5f                	pop    %r15
ffffffff80001976:	c3                   	ret
ffffffff80001977:	66 0f 1f 84 00 00 00 	nopw   0x0(%rax,%rax,1)
ffffffff8000197e:	00 00 

ffffffff80001980 <vmm_map_bytes>:
ffffffff80001980:	f3 0f 1e fa          	endbr64
ffffffff80001984:	48 81 c1 ff 0f 00 00 	add    $0xfff,%rcx
ffffffff8000198b:	48 c1 e9 0c          	shr    $0xc,%rcx
ffffffff8000198f:	e9 0c ff ff ff       	jmp    ffffffff800018a0 <vmm_map_pages>
ffffffff80001994:	66 66 2e 0f 1f 84 00 	data16 cs nopw 0x0(%rax,%rax,1)
ffffffff8000199b:	00 00 00 00 
ffffffff8000199f:	90                   	nop

ffffffff800019a0 <vmm_create_address_space>:
ffffffff800019a0:	f3 0f 1e fa          	endbr64
ffffffff800019a4:	53                   	push   %rbx
ffffffff800019a5:	bf 10 00 00 00       	mov    $0x10,%edi
ffffffff800019aa:	e8 d1 06 00 00       	call   ffffffff80002080 <kmalloc>
ffffffff800019af:	48 89 c3             	mov    %rax,%rbx
ffffffff800019b2:	48 85 c0             	test   %rax,%rax
ffffffff800019b5:	74 7b                	je     ffffffff80001a32 <vmm_create_address_space+0x92>
ffffffff800019b7:	31 c0                	xor    %eax,%eax
ffffffff800019b9:	e8 02 0e 00 00       	call   ffffffff800027c0 <pmm_alloc_page>
ffffffff800019be:	66 0f ef c0          	pxor   %xmm0,%xmm0
ffffffff800019c2:	48 ba 00 00 00 00 00 	movabs $0xffff800000000000,%rdx
ffffffff800019c9:	80 ff ff 
ffffffff800019cc:	48 b9 00 10 00 00 00 	movabs $0xffff800000001000,%rcx
ffffffff800019d3:	80 ff ff 
ffffffff800019d6:	48 01 c2             	add    %rax,%rdx
ffffffff800019d9:	48 89 03             	mov    %rax,(%rbx)
ffffffff800019dc:	48 89 c6             	mov    %rax,%rsi
ffffffff800019df:	48 01 c1             	add    %rax,%rcx
ffffffff800019e2:	48 89 53 08          	mov    %rdx,0x8(%rbx)
ffffffff800019e6:	0f 11 02             	movups %xmm0,(%rdx)
ffffffff800019e9:	48 83 c2 20          	add    $0x20,%rdx
ffffffff800019ed:	0f 11 42 f0          	movups %xmm0,-0x10(%rdx)
ffffffff800019f1:	48 39 d1             	cmp    %rdx,%rcx
ffffffff800019f4:	75 f0                	jne    ffffffff800019e6 <vmm_create_address_space+0x46>
ffffffff800019f6:	48 ba 00 08 00 00 00 	movabs $0xffff800000000800,%rdx
ffffffff800019fd:	80 ff ff 
ffffffff80001a00:	48 b8 00 00 00 00 00 	movabs $0x800000000000,%rax
ffffffff80001a07:	80 00 00 
ffffffff80001a0a:	48 29 f0             	sub    %rsi,%rax
ffffffff80001a0d:	48 01 f2             	add    %rsi,%rdx
ffffffff80001a10:	48 03 05 f1 77 00 00 	add    0x77f1(%rip),%rax        # ffffffff80009208 <g_kernel_address_space+0x8>
ffffffff80001a17:	66 0f 1f 84 00 00 00 	nopw   0x0(%rax,%rax,1)
ffffffff80001a1e:	00 00 
ffffffff80001a20:	f3 0f 6f 0c 02       	movdqu (%rdx,%rax,1),%xmm1
ffffffff80001a25:	48 83 c2 10          	add    $0x10,%rdx
ffffffff80001a29:	0f 11 4a f0          	movups %xmm1,-0x10(%rdx)
ffffffff80001a2d:	48 39 d1             	cmp    %rdx,%rcx
ffffffff80001a30:	75 ee                	jne    ffffffff80001a20 <vmm_create_address_space+0x80>
ffffffff80001a32:	48 89 d8             	mov    %rbx,%rax
ffffffff80001a35:	5b                   	pop    %rbx
ffffffff80001a36:	c3                   	ret
ffffffff80001a37:	66 0f 1f 84 00 00 00 	nopw   0x0(%rax,%rax,1)
ffffffff80001a3e:	00 00 

ffffffff80001a40 <vmm_destroy_address_space>:
ffffffff80001a40:	f3 0f 1e fa          	endbr64
ffffffff80001a44:	48 c7 c7 80 6f 00 80 	mov    $0xffffffff80006f80,%rdi
ffffffff80001a4b:	e9 f0 17 00 00       	jmp    ffffffff80003240 <panic>

ffffffff80001a50 <vmm_switch_address_space>:
ffffffff80001a50:	f3 0f 1e fa          	endbr64
ffffffff80001a54:	48 8b 07             	mov    (%rdi),%rax
ffffffff80001a57:	0f 22 d8             	mov    %rax,%cr3
ffffffff80001a5a:	c3                   	ret
ffffffff80001a5b:	0f 1f 44 00 00       	nopl   0x0(%rax,%rax,1)

ffffffff80001a60 <vmm_init>:
ffffffff80001a60:	f3 0f 1e fa          	endbr64
ffffffff80001a64:	41 56                	push   %r14
ffffffff80001a66:	41 55                	push   %r13
ffffffff80001a68:	41 54                	push   %r12
ffffffff80001a6a:	55                   	push   %rbp
ffffffff80001a6b:	53                   	push   %rbx
ffffffff80001a6c:	48 89 fb             	mov    %rdi,%rbx
ffffffff80001a6f:	48 c7 c7 26 68 00 80 	mov    $0xffffffff80006826,%rdi
ffffffff80001a76:	e8 35 3e 00 00       	call   ffffffff800058b0 <serial_write_line>
ffffffff80001a7b:	31 c0                	xor    %eax,%eax
ffffffff80001a7d:	e8 3e 0d 00 00       	call   ffffffff800027c0 <pmm_alloc_page>
ffffffff80001a82:	48 89 05 77 77 00 00 	mov    %rax,0x7777(%rip)        # ffffffff80009200 <g_kernel_address_space>
ffffffff80001a89:	48 85 c0             	test   %rax,%rax
ffffffff80001a8c:	0f 84 ce 02 00 00    	je     ffffffff80001d60 <vmm_init+0x300>
ffffffff80001a92:	48 c7 c7 3a 68 00 80 	mov    $0xffffffff8000683a,%rdi
ffffffff80001a99:	e8 c2 3d 00 00       	call   ffffffff80005860 <serial_write>
ffffffff80001a9e:	48 8b 3d 5b 77 00 00 	mov    0x775b(%rip),%rdi        # ffffffff80009200 <g_kernel_address_space>
ffffffff80001aa5:	e8 d6 40 00 00       	call   ffffffff80005b80 <serial_write_hex>
ffffffff80001aaa:	48 c7 c7 7a 6b 00 80 	mov    $0xffffffff80006b7a,%rdi
ffffffff80001ab1:	e8 aa 3d 00 00       	call   ffffffff80005860 <serial_write>
ffffffff80001ab6:	48 8b 15 43 77 00 00 	mov    0x7743(%rip),%rdx        # ffffffff80009200 <g_kernel_address_space>
ffffffff80001abd:	66 0f ef c0          	pxor   %xmm0,%xmm0
ffffffff80001ac1:	48 b8 00 00 00 00 00 	movabs $0xffff800000000000,%rax
ffffffff80001ac8:	80 ff ff 
ffffffff80001acb:	48 b9 00 10 00 00 00 	movabs $0xffff800000001000,%rcx
ffffffff80001ad2:	80 ff ff 
ffffffff80001ad5:	48 01 d0             	add    %rdx,%rax
ffffffff80001ad8:	48 01 ca             	add    %rcx,%rdx
ffffffff80001adb:	48 89 05 26 77 00 00 	mov    %rax,0x7726(%rip)        # ffffffff80009208 <g_kernel_address_space+0x8>
ffffffff80001ae2:	0f 11 00             	movups %xmm0,(%rax)
ffffffff80001ae5:	48 83 c0 20          	add    $0x20,%rax
ffffffff80001ae9:	0f 11 40 f0          	movups %xmm0,-0x10(%rax)
ffffffff80001aed:	48 39 c2             	cmp    %rax,%rdx
ffffffff80001af0:	75 f0                	jne    ffffffff80001ae2 <vmm_init+0x82>
ffffffff80001af2:	48 c7 c7 46 68 00 80 	mov    $0xffffffff80006846,%rdi
ffffffff80001af9:	e8 62 3d 00 00       	call   ffffffff80005860 <serial_write>
ffffffff80001afe:	48 c7 c1 ff 9f 21 00 	mov    $0x219fff,%rcx
ffffffff80001b05:	41 b8 03 00 00 00    	mov    $0x3,%r8d
ffffffff80001b0b:	48 c7 c2 00 e0 20 00 	mov    $0x20e000,%rdx
ffffffff80001b12:	48 81 e9 00 e0 20 00 	sub    $0x20e000,%rcx
ffffffff80001b19:	48 c7 c6 00 00 00 80 	mov    $0xffffffff80000000,%rsi
ffffffff80001b20:	48 c7 c7 00 92 00 80 	mov    $0xffffffff80009200,%rdi
ffffffff80001b27:	48 c1 e9 0c          	shr    $0xc,%rcx
ffffffff80001b2b:	e8 70 fd ff ff       	call   ffffffff800018a0 <vmm_map_pages>
ffffffff80001b30:	48 c7 c7 5e 68 00 80 	mov    $0xffffffff8000685e,%rdi
ffffffff80001b37:	e8 74 3d 00 00       	call   ffffffff800058b0 <serial_write_line>
ffffffff80001b3c:	48 c7 c7 64 68 00 80 	mov    $0xffffffff80006864,%rdi
ffffffff80001b43:	e8 18 3d 00 00       	call   ffffffff80005860 <serial_write>
ffffffff80001b48:	8b 4b 0c             	mov    0xc(%rbx),%ecx
ffffffff80001b4b:	0f af 4b 10          	imul   0x10(%rbx),%ecx
ffffffff80001b4f:	41 b8 02 00 00 00    	mov    $0x2,%r8d
ffffffff80001b55:	48 8b 13             	mov    (%rbx),%rdx
ffffffff80001b58:	48 c7 c7 00 92 00 80 	mov    $0xffffffff80009200,%rdi
ffffffff80001b5f:	31 db                	xor    %ebx,%ebx
ffffffff80001b61:	48 be 00 00 00 00 00 	movabs $0xffff900000000000,%rsi
ffffffff80001b68:	90 ff ff 
ffffffff80001b6b:	48 81 c1 ff 0f 00 00 	add    $0xfff,%rcx
ffffffff80001b72:	48 c1 e9 0c          	shr    $0xc,%rcx
ffffffff80001b76:	e8 25 fd ff ff       	call   ffffffff800018a0 <vmm_map_pages>
ffffffff80001b7b:	48 c7 c7 5e 68 00 80 	mov    $0xffffffff8000685e,%rdi
ffffffff80001b82:	e8 29 3d 00 00       	call   ffffffff800058b0 <serial_write_line>
ffffffff80001b87:	48 c7 c7 7b 68 00 80 	mov    $0xffffffff8000687b,%rdi
ffffffff80001b8e:	e8 cd 3c 00 00       	call   ffffffff80005860 <serial_write>
ffffffff80001b93:	31 c0                	xor    %eax,%eax
ffffffff80001b95:	e8 a6 0f 00 00       	call   ffffffff80002b40 <pmm_get_max_address>
ffffffff80001b9a:	41 b8 02 00 00 00    	mov    $0x2,%r8d
ffffffff80001ba0:	31 d2                	xor    %edx,%edx
ffffffff80001ba2:	48 be 00 00 00 00 00 	movabs $0xffff800000000000,%rsi
ffffffff80001ba9:	80 ff ff 
ffffffff80001bac:	48 8d 88 ff 0f 00 00 	lea    0xfff(%rax),%rcx
ffffffff80001bb3:	48 c7 c7 00 92 00 80 	mov    $0xffffffff80009200,%rdi
ffffffff80001bba:	48 c1 e9 0c          	shr    $0xc,%rcx
ffffffff80001bbe:	e8 dd fc ff ff       	call   ffffffff800018a0 <vmm_map_pages>
ffffffff80001bc3:	48 c7 c7 5e 68 00 80 	mov    $0xffffffff8000685e,%rdi
ffffffff80001bca:	e8 e1 3c 00 00       	call   ffffffff800058b0 <serial_write_line>
ffffffff80001bcf:	48 c7 c7 8b 68 00 80 	mov    $0xffffffff8000688b,%rdi
ffffffff80001bd6:	e8 85 3c 00 00       	call   ffffffff80005860 <serial_write>
ffffffff80001bdb:	0f 1f 44 00 00       	nopl   0x0(%rax,%rax,1)
ffffffff80001be0:	48 8b 3d 21 76 00 00 	mov    0x7621(%rip),%rdi        # ffffffff80009208 <g_kernel_address_space+0x8>
ffffffff80001be7:	ba 03 00 00 00       	mov    $0x3,%edx
ffffffff80001bec:	31 f6                	xor    %esi,%esi
ffffffff80001bee:	e8 ed fb ff ff       	call   ffffffff800017e0 <get_or_create>
ffffffff80001bf3:	ba 03 00 00 00       	mov    $0x3,%edx
ffffffff80001bf8:	31 f6                	xor    %esi,%esi
ffffffff80001bfa:	48 89 c7             	mov    %rax,%rdi
ffffffff80001bfd:	e8 de fb ff ff       	call   ffffffff800017e0 <get_or_create>
ffffffff80001c02:	48 89 de             	mov    %rbx,%rsi
ffffffff80001c05:	ba 03 00 00 00       	mov    $0x3,%edx
ffffffff80001c0a:	48 89 c7             	mov    %rax,%rdi
ffffffff80001c0d:	48 c1 ee 15          	shr    $0x15,%rsi
ffffffff80001c11:	e8 ca fb ff ff       	call   ffffffff800017e0 <get_or_create>
ffffffff80001c16:	48 89 d9             	mov    %rbx,%rcx
ffffffff80001c19:	48 89 c2             	mov    %rax,%rdx
ffffffff80001c1c:	48 89 d8             	mov    %rbx,%rax
ffffffff80001c1f:	48 83 c9 03          	or     $0x3,%rcx
ffffffff80001c23:	48 81 c3 00 10 00 00 	add    $0x1000,%rbx
ffffffff80001c2a:	48 c1 e8 0c          	shr    $0xc,%rax
ffffffff80001c2e:	25 ff 01 00 00       	and    $0x1ff,%eax
ffffffff80001c33:	48 89 0c c2          	mov    %rcx,(%rdx,%rax,8)
ffffffff80001c37:	48 81 fb 00 10 3d 00 	cmp    $0x3d1000,%rbx
ffffffff80001c3e:	75 a0                	jne    ffffffff80001be0 <vmm_init+0x180>
ffffffff80001c40:	48 c7 c7 5e 68 00 80 	mov    $0xffffffff8000685e,%rdi
ffffffff80001c47:	e8 64 3c 00 00       	call   ffffffff800058b0 <serial_write_line>
ffffffff80001c4c:	48 89 e3             	mov    %rsp,%rbx
ffffffff80001c4f:	48 c7 c7 a3 68 00 80 	mov    $0xffffffff800068a3,%rdi
ffffffff80001c56:	e8 05 3c 00 00       	call   ffffffff80005860 <serial_write>
ffffffff80001c5b:	48 89 df             	mov    %rbx,%rdi
ffffffff80001c5e:	e8 1d 3f 00 00       	call   ffffffff80005b80 <serial_write_hex>
ffffffff80001c63:	bf 0a 00 00 00       	mov    $0xa,%edi
ffffffff80001c68:	e8 c3 3b 00 00       	call   ffffffff80005830 <serial_write_char>
ffffffff80001c6d:	48 c7 c7 a9 68 00 80 	mov    $0xffffffff800068a9,%rdi
ffffffff80001c74:	e8 37 3c 00 00       	call   ffffffff800058b0 <serial_write_line>
ffffffff80001c79:	bf 00 04 00 00       	mov    $0x400,%edi
ffffffff80001c7e:	e8 2d 0d 00 00       	call   ffffffff800029b0 <pmm_alloc_pages>
ffffffff80001c83:	49 89 c4             	mov    %rax,%r12
ffffffff80001c86:	48 85 c0             	test   %rax,%rax
ffffffff80001c89:	0f 84 e9 00 00 00    	je     ffffffff80001d78 <vmm_init+0x318>
ffffffff80001c8f:	48 b8 00 00 40 00 00 	movabs $0x400000400000,%rax
ffffffff80001c96:	40 00 00 
ffffffff80001c99:	48 bb 00 00 c0 ff ff 	movabs $0xffffbfffffc00000,%rbx
ffffffff80001ca0:	bf ff ff 
ffffffff80001ca3:	49 be 00 f0 ff ff ff 	movabs $0xffffffffff000,%r14
ffffffff80001caa:	ff 0f 00 
ffffffff80001cad:	49 bd 00 00 00 00 00 	movabs $0xffffc00000000000,%r13
ffffffff80001cb4:	c0 ff ff 
ffffffff80001cb7:	49 01 c4             	add    %rax,%r12
ffffffff80001cba:	66 0f 1f 44 00 00    	nopw   0x0(%rax,%rax,1)
ffffffff80001cc0:	48 8b 3d 41 75 00 00 	mov    0x7541(%rip),%rdi        # ffffffff80009208 <g_kernel_address_space+0x8>
ffffffff80001cc7:	ba 03 00 00 00       	mov    $0x3,%edx
ffffffff80001ccc:	be 7f 01 00 00       	mov    $0x17f,%esi
ffffffff80001cd1:	49 8d 2c 1c          	lea    (%r12,%rbx,1),%rbp
ffffffff80001cd5:	4c 21 f5             	and    %r14,%rbp
ffffffff80001cd8:	e8 03 fb ff ff       	call   ffffffff800017e0 <get_or_create>
ffffffff80001cdd:	ba 03 00 00 00       	mov    $0x3,%edx
ffffffff80001ce2:	be ff 01 00 00       	mov    $0x1ff,%esi
ffffffff80001ce7:	48 83 cd 03          	or     $0x3,%rbp
ffffffff80001ceb:	48 89 c7             	mov    %rax,%rdi
ffffffff80001cee:	e8 ed fa ff ff       	call   ffffffff800017e0 <get_or_create>
ffffffff80001cf3:	48 89 de             	mov    %rbx,%rsi
ffffffff80001cf6:	ba 03 00 00 00       	mov    $0x3,%edx
ffffffff80001cfb:	48 c1 ee 15          	shr    $0x15,%rsi
ffffffff80001cff:	48 89 c7             	mov    %rax,%rdi
ffffffff80001d02:	81 e6 ff 01 00 00    	and    $0x1ff,%esi
ffffffff80001d08:	e8 d3 fa ff ff       	call   ffffffff800017e0 <get_or_create>
ffffffff80001d0d:	48 89 c2             	mov    %rax,%rdx
ffffffff80001d10:	48 89 d8             	mov    %rbx,%rax
ffffffff80001d13:	48 81 c3 00 10 00 00 	add    $0x1000,%rbx
ffffffff80001d1a:	48 c1 e8 0c          	shr    $0xc,%rax
ffffffff80001d1e:	25 ff 01 00 00       	and    $0x1ff,%eax
ffffffff80001d23:	48 89 2c c2          	mov    %rbp,(%rdx,%rax,8)
ffffffff80001d27:	4c 39 eb             	cmp    %r13,%rbx
ffffffff80001d2a:	75 94                	jne    ffffffff80001cc0 <vmm_init+0x260>
ffffffff80001d2c:	48 c7 c7 e8 6f 00 80 	mov    $0xffffffff80006fe8,%rdi
ffffffff80001d33:	e8 28 3b 00 00       	call   ffffffff80005860 <serial_write>
ffffffff80001d38:	48 8b 05 c1 74 00 00 	mov    0x74c1(%rip),%rax        # ffffffff80009200 <g_kernel_address_space>
ffffffff80001d3f:	0f 22 d8             	mov    %rax,%cr3
ffffffff80001d42:	48 c7 c7 5e 68 00 80 	mov    $0xffffffff8000685e,%rdi
ffffffff80001d49:	5b                   	pop    %rbx
ffffffff80001d4a:	5d                   	pop    %rbp
ffffffff80001d4b:	41 5c                	pop    %r12
ffffffff80001d4d:	41 5d                	pop    %r13
ffffffff80001d4f:	41 5e                	pop    %r14
ffffffff80001d51:	e9 5a 3b 00 00       	jmp    ffffffff800058b0 <serial_write_line>
ffffffff80001d56:	66 2e 0f 1f 84 00 00 	cs nopw 0x0(%rax,%rax,1)
ffffffff80001d5d:	00 00 00 
ffffffff80001d60:	48 c7 c7 b8 6f 00 80 	mov    $0xffffffff80006fb8,%rdi
ffffffff80001d67:	e8 d4 14 00 00       	call   ffffffff80003240 <panic>
ffffffff80001d6c:	e9 21 fd ff ff       	jmp    ffffffff80001a92 <vmm_init+0x32>
ffffffff80001d71:	0f 1f 80 00 00 00 00 	nopl   0x0(%rax)
ffffffff80001d78:	48 c7 c7 c1 68 00 80 	mov    $0xffffffff800068c1,%rdi
ffffffff80001d7f:	e8 bc 14 00 00       	call   ffffffff80003240 <panic>
ffffffff80001d84:	e9 06 ff ff ff       	jmp    ffffffff80001c8f <vmm_init+0x22f>
ffffffff80001d89:	0f 1f 80 00 00 00 00 	nopl   0x0(%rax)

ffffffff80001d90 <vmm_setup_stack>:
ffffffff80001d90:	f3 0f 1e fa          	endbr64
ffffffff80001d94:	41 56                	push   %r14
ffffffff80001d96:	48 c7 c7 a9 68 00 80 	mov    $0xffffffff800068a9,%rdi
ffffffff80001d9d:	41 55                	push   %r13
ffffffff80001d9f:	41 54                	push   %r12
ffffffff80001da1:	55                   	push   %rbp
ffffffff80001da2:	53                   	push   %rbx
ffffffff80001da3:	e8 08 3b 00 00       	call   ffffffff800058b0 <serial_write_line>
ffffffff80001da8:	bf 00 04 00 00       	mov    $0x400,%edi
ffffffff80001dad:	e8 fe 0b 00 00       	call   ffffffff800029b0 <pmm_alloc_pages>
ffffffff80001db2:	49 89 c4             	mov    %rax,%r12
ffffffff80001db5:	48 85 c0             	test   %rax,%rax
ffffffff80001db8:	0f 84 b2 00 00 00    	je     ffffffff80001e70 <vmm_setup_stack+0xe0>
ffffffff80001dbe:	48 b8 00 00 40 00 00 	movabs $0x400000400000,%rax
ffffffff80001dc5:	40 00 00 
ffffffff80001dc8:	48 bb 00 00 c0 ff ff 	movabs $0xffffbfffffc00000,%rbx
ffffffff80001dcf:	bf ff ff 
ffffffff80001dd2:	49 be 00 f0 ff ff ff 	movabs $0xffffffffff000,%r14
ffffffff80001dd9:	ff 0f 00 
ffffffff80001ddc:	49 bd 00 00 00 00 00 	movabs $0xffffc00000000000,%r13
ffffffff80001de3:	c0 ff ff 
ffffffff80001de6:	49 01 c4             	add    %rax,%r12
ffffffff80001de9:	0f 1f 80 00 00 00 00 	nopl   0x0(%rax)
ffffffff80001df0:	48 8b 3d 11 74 00 00 	mov    0x7411(%rip),%rdi        # ffffffff80009208 <g_kernel_address_space+0x8>
ffffffff80001df7:	ba 03 00 00 00       	mov    $0x3,%edx
ffffffff80001dfc:	be 7f 01 00 00       	mov    $0x17f,%esi
ffffffff80001e01:	49 8d 2c 1c          	lea    (%r12,%rbx,1),%rbp
ffffffff80001e05:	4c 21 f5             	and    %r14,%rbp
ffffffff80001e08:	e8 d3 f9 ff ff       	call   ffffffff800017e0 <get_or_create>
ffffffff80001e0d:	ba 03 00 00 00       	mov    $0x3,%edx
ffffffff80001e12:	be ff 01 00 00       	mov    $0x1ff,%esi
ffffffff80001e17:	48 83 cd 03          	or     $0x3,%rbp
ffffffff80001e1b:	48 89 c7             	mov    %rax,%rdi
ffffffff80001e1e:	e8 bd f9 ff ff       	call   ffffffff800017e0 <get_or_create>
ffffffff80001e23:	48 89 de             	mov    %rbx,%rsi
ffffffff80001e26:	ba 03 00 00 00       	mov    $0x3,%edx
ffffffff80001e2b:	48 c1 ee 15          	shr    $0x15,%rsi
ffffffff80001e2f:	48 89 c7             	mov    %rax,%rdi
ffffffff80001e32:	81 e6 ff 01 00 00    	and    $0x1ff,%esi
ffffffff80001e38:	e8 a3 f9 ff ff       	call   ffffffff800017e0 <get_or_create>
ffffffff80001e3d:	48 89 c2             	mov    %rax,%rdx
ffffffff80001e40:	48 89 d8             	mov    %rbx,%rax
ffffffff80001e43:	48 81 c3 00 10 00 00 	add    $0x1000,%rbx
ffffffff80001e4a:	48 c1 e8 0c          	shr    $0xc,%rax
ffffffff80001e4e:	25 ff 01 00 00       	and    $0x1ff,%eax
ffffffff80001e53:	48 89 2c c2          	mov    %rbp,(%rdx,%rax,8)
ffffffff80001e57:	4c 39 eb             	cmp    %r13,%rbx
ffffffff80001e5a:	75 94                	jne    ffffffff80001df0 <vmm_setup_stack+0x60>
ffffffff80001e5c:	48 89 d8             	mov    %rbx,%rax
ffffffff80001e5f:	5b                   	pop    %rbx
ffffffff80001e60:	5d                   	pop    %rbp
ffffffff80001e61:	41 5c                	pop    %r12
ffffffff80001e63:	41 5d                	pop    %r13
ffffffff80001e65:	41 5e                	pop    %r14
ffffffff80001e67:	c3                   	ret
ffffffff80001e68:	0f 1f 84 00 00 00 00 	nopl   0x0(%rax,%rax,1)
ffffffff80001e6f:	00 
ffffffff80001e70:	48 c7 c7 c1 68 00 80 	mov    $0xffffffff800068c1,%rdi
ffffffff80001e77:	e8 c4 13 00 00       	call   ffffffff80003240 <panic>
ffffffff80001e7c:	e9 3d ff ff ff       	jmp    ffffffff80001dbe <vmm_setup_stack+0x2e>
ffffffff80001e81:	66 66 2e 0f 1f 84 00 	data16 cs nopw 0x0(%rax,%rax,1)
ffffffff80001e88:	00 00 00 00 
ffffffff80001e8c:	0f 1f 40 00          	nopl   0x0(%rax)

ffffffff80001e90 <vmm_kernel_heap_alloc>:
ffffffff80001e90:	f3 0f 1e fa          	endbr64
ffffffff80001e94:	55                   	push   %rbp
ffffffff80001e95:	48 89 fd             	mov    %rdi,%rbp
ffffffff80001e98:	53                   	push   %rbx
ffffffff80001e99:	48 8d 9e ff 0f 00 00 	lea    0xfff(%rsi),%rbx
ffffffff80001ea0:	48 c1 eb 0c          	shr    $0xc,%rbx
ffffffff80001ea4:	89 df                	mov    %ebx,%edi
ffffffff80001ea6:	48 83 ec 08          	sub    $0x8,%rsp
ffffffff80001eaa:	e8 01 0b 00 00       	call   ffffffff800029b0 <pmm_alloc_pages>
ffffffff80001eaf:	48 83 c4 08          	add    $0x8,%rsp
ffffffff80001eb3:	48 89 d9             	mov    %rbx,%rcx
ffffffff80001eb6:	41 b8 02 00 00 00    	mov    $0x2,%r8d
ffffffff80001ebc:	48 89 c2             	mov    %rax,%rdx
ffffffff80001ebf:	5b                   	pop    %rbx
ffffffff80001ec0:	48 c7 c7 00 92 00 80 	mov    $0xffffffff80009200,%rdi
ffffffff80001ec7:	48 b8 00 00 00 00 00 	movabs $0xffffa00000000000,%rax
ffffffff80001ece:	a0 ff ff 
ffffffff80001ed1:	48 8d 74 05 00       	lea    0x0(%rbp,%rax,1),%rsi
ffffffff80001ed6:	5d                   	pop    %rbp
ffffffff80001ed7:	e9 c4 f9 ff ff       	jmp    ffffffff800018a0 <vmm_map_pages>
ffffffff80001edc:	0f 1f 40 00          	nopl   0x0(%rax)

ffffffff80001ee0 <vmm_kernel_heap_free>:
ffffffff80001ee0:	f3 0f 1e fa          	endbr64
ffffffff80001ee4:	41 55                	push   %r13
ffffffff80001ee6:	48 81 c6 ff 0f 00 00 	add    $0xfff,%rsi
ffffffff80001eed:	48 b8 00 00 00 00 00 	movabs $0xffffa00000000000,%rax
ffffffff80001ef4:	a0 ff ff 
ffffffff80001ef7:	41 54                	push   %r12
ffffffff80001ef9:	55                   	push   %rbp
ffffffff80001efa:	48 8d 2c 07          	lea    (%rdi,%rax,1),%rbp
ffffffff80001efe:	53                   	push   %rbx
ffffffff80001eff:	48 83 ec 08          	sub    $0x8,%rsp
ffffffff80001f03:	48 c1 ee 0c          	shr    $0xc,%rsi
ffffffff80001f07:	0f 84 c5 00 00 00    	je     ffffffff80001fd2 <vmm_kernel_heap_free+0xf2>
ffffffff80001f0d:	48 c1 e6 0c          	shl    $0xc,%rsi
ffffffff80001f11:	48 8d 1c 2e          	lea    (%rsi,%rbp,1),%rbx
ffffffff80001f15:	48 89 e8             	mov    %rbp,%rax
ffffffff80001f18:	48 8b 15 e9 72 00 00 	mov    0x72e9(%rip),%rdx        # ffffffff80009208 <g_kernel_address_space+0x8>
ffffffff80001f1f:	48 c1 e8 27          	shr    $0x27,%rax
ffffffff80001f23:	25 ff 01 00 00       	and    $0x1ff,%eax
ffffffff80001f28:	48 8b 04 c2          	mov    (%rdx,%rax,8),%rax
ffffffff80001f2c:	a8 01                	test   $0x1,%al
ffffffff80001f2e:	0f 84 9e 00 00 00    	je     ffffffff80001fd2 <vmm_kernel_heap_free+0xf2>
ffffffff80001f34:	48 bf 00 f0 ff ff ff 	movabs $0xffffffffff000,%rdi
ffffffff80001f3b:	ff 0f 00 
ffffffff80001f3e:	48 ba 00 00 00 00 00 	movabs $0xffff800000000000,%rdx
ffffffff80001f45:	80 ff ff 
ffffffff80001f48:	48 b9 00 00 00 00 00 	movabs $0x800000000000,%rcx
ffffffff80001f4f:	80 00 00 
ffffffff80001f52:	48 21 f8             	and    %rdi,%rax
ffffffff80001f55:	48 01 c2             	add    %rax,%rdx
ffffffff80001f58:	48 39 c8             	cmp    %rcx,%rax
ffffffff80001f5b:	74 75                	je     ffffffff80001fd2 <vmm_kernel_heap_free+0xf2>
ffffffff80001f5d:	48 89 e8             	mov    %rbp,%rax
ffffffff80001f60:	48 c1 e8 1e          	shr    $0x1e,%rax
ffffffff80001f64:	25 ff 01 00 00       	and    $0x1ff,%eax
ffffffff80001f69:	48 8b 04 c2          	mov    (%rdx,%rax,8),%rax
ffffffff80001f6d:	a8 01                	test   $0x1,%al
ffffffff80001f6f:	74 61                	je     ffffffff80001fd2 <vmm_kernel_heap_free+0xf2>
ffffffff80001f71:	48 21 f8             	and    %rdi,%rax
ffffffff80001f74:	48 89 c2             	mov    %rax,%rdx
ffffffff80001f77:	48 29 ca             	sub    %rcx,%rdx
ffffffff80001f7a:	48 39 c8             	cmp    %rcx,%rax
ffffffff80001f7d:	74 53                	je     ffffffff80001fd2 <vmm_kernel_heap_free+0xf2>
ffffffff80001f7f:	48 89 e8             	mov    %rbp,%rax
ffffffff80001f82:	48 c1 e8 15          	shr    $0x15,%rax
ffffffff80001f86:	25 ff 01 00 00       	and    $0x1ff,%eax
ffffffff80001f8b:	48 8b 04 c2          	mov    (%rdx,%rax,8),%rax
ffffffff80001f8f:	a8 01                	test   $0x1,%al
ffffffff80001f91:	74 3f                	je     ffffffff80001fd2 <vmm_kernel_heap_free+0xf2>
ffffffff80001f93:	48 21 f8             	and    %rdi,%rax
ffffffff80001f96:	49 89 c5             	mov    %rax,%r13
ffffffff80001f99:	49 29 cd             	sub    %rcx,%r13
ffffffff80001f9c:	48 39 c8             	cmp    %rcx,%rax
ffffffff80001f9f:	74 31                	je     ffffffff80001fd2 <vmm_kernel_heap_free+0xf2>
ffffffff80001fa1:	49 89 ec             	mov    %rbp,%r12
ffffffff80001fa4:	48 81 c5 00 10 00 00 	add    $0x1000,%rbp
ffffffff80001fab:	49 c1 ec 0c          	shr    $0xc,%r12
ffffffff80001faf:	41 81 e4 ff 01 00 00 	and    $0x1ff,%r12d
ffffffff80001fb6:	4b 23 7c e5 00       	and    0x0(%r13,%r12,8),%rdi
ffffffff80001fbb:	e8 30 09 00 00       	call   ffffffff800028f0 <pmm_free_page>
ffffffff80001fc0:	4b c7 44 e5 00 00 00 	movq   $0x0,0x0(%r13,%r12,8)
ffffffff80001fc7:	00 00 
ffffffff80001fc9:	48 39 eb             	cmp    %rbp,%rbx
ffffffff80001fcc:	0f 85 43 ff ff ff    	jne    ffffffff80001f15 <vmm_kernel_heap_free+0x35>
ffffffff80001fd2:	48 83 c4 08          	add    $0x8,%rsp
ffffffff80001fd6:	5b                   	pop    %rbx
ffffffff80001fd7:	5d                   	pop    %rbp
ffffffff80001fd8:	41 5c                	pop    %r12
ffffffff80001fda:	41 5d                	pop    %r13
ffffffff80001fdc:	c3                   	ret
ffffffff80001fdd:	0f 1f 00             	nopl   (%rax)

ffffffff80001fe0 <heap_init>:
ffffffff80001fe0:	f3 0f 1e fa          	endbr64
ffffffff80001fe4:	53                   	push   %rbx
ffffffff80001fe5:	48 c7 c7 de 68 00 80 	mov    $0xffffffff800068de,%rdi
ffffffff80001fec:	e8 bf 38 00 00       	call   ffffffff800058b0 <serial_write_line>
ffffffff80001ff1:	bf 04 00 00 00       	mov    $0x4,%edi
ffffffff80001ff6:	e8 b5 09 00 00       	call   ffffffff800029b0 <pmm_alloc_pages>
ffffffff80001ffb:	48 c7 c7 e5 68 00 80 	mov    $0xffffffff800068e5,%rdi
ffffffff80002002:	48 89 c3             	mov    %rax,%rbx
ffffffff80002005:	e8 a6 38 00 00       	call   ffffffff800058b0 <serial_write_line>
ffffffff8000200a:	48 c7 c7 ec 68 00 80 	mov    $0xffffffff800068ec,%rdi
ffffffff80002011:	e8 9a 38 00 00       	call   ffffffff800058b0 <serial_write_line>
ffffffff80002016:	48 89 da             	mov    %rbx,%rdx
ffffffff80002019:	48 bb 00 00 00 00 00 	movabs $0xffffa00000000000,%rbx
ffffffff80002020:	a0 ff ff 
ffffffff80002023:	41 b8 02 00 00 00    	mov    $0x2,%r8d
ffffffff80002029:	48 89 de             	mov    %rbx,%rsi
ffffffff8000202c:	b9 04 00 00 00       	mov    $0x4,%ecx
ffffffff80002031:	48 c7 c7 00 92 00 80 	mov    $0xffffffff80009200,%rdi
ffffffff80002038:	e8 63 f8 ff ff       	call   ffffffff800018a0 <vmm_map_pages>
ffffffff8000203d:	48 c7 c7 f3 68 00 80 	mov    $0xffffffff800068f3,%rdi
ffffffff80002044:	e8 67 38 00 00       	call   ffffffff800058b0 <serial_write_line>
ffffffff80002049:	66 0f 6f 05 bf 51 00 	movdqa 0x51bf(%rip),%xmm0        # ffffffff80007210 <CSWTCH.3+0xa50>
ffffffff80002050:	00 
ffffffff80002051:	48 89 1d c8 71 00 00 	mov    %rbx,0x71c8(%rip)        # ffffffff80009220 <g_heap+0x10>
ffffffff80002058:	0f 29 05 b1 71 00 00 	movaps %xmm0,0x71b1(%rip)        # ffffffff80009210 <g_heap>
ffffffff8000205f:	48 c7 03 e0 3f 00 00 	movq   $0x3fe0,(%rbx)
ffffffff80002066:	c6 43 18 01          	movb   $0x1,0x18(%rbx)
ffffffff8000206a:	48 c7 43 08 00 00 00 	movq   $0x0,0x8(%rbx)
ffffffff80002071:	00 
ffffffff80002072:	48 c7 43 10 00 00 00 	movq   $0x0,0x10(%rbx)
ffffffff80002079:	00 
ffffffff8000207a:	5b                   	pop    %rbx
ffffffff8000207b:	c3                   	ret
ffffffff8000207c:	0f 1f 40 00          	nopl   0x0(%rax)

ffffffff80002080 <kmalloc>:
ffffffff80002080:	f3 0f 1e fa          	endbr64
ffffffff80002084:	48 85 ff             	test   %rdi,%rdi
ffffffff80002087:	0f 84 6b 01 00 00    	je     ffffffff800021f8 <kmalloc+0x178>
ffffffff8000208d:	41 55                	push   %r13
ffffffff8000208f:	41 54                	push   %r12
ffffffff80002091:	55                   	push   %rbp
ffffffff80002092:	48 8d 6f 0f          	lea    0xf(%rdi),%rbp
ffffffff80002096:	53                   	push   %rbx
ffffffff80002097:	48 83 e5 f0          	and    $0xfffffffffffffff0,%rbp
ffffffff8000209b:	48 83 ec 08          	sub    $0x8,%rsp
ffffffff8000209f:	48 8b 1d 7a 71 00 00 	mov    0x717a(%rip),%rbx        # ffffffff80009220 <g_heap+0x10>
ffffffff800020a6:	48 85 db             	test   %rbx,%rbx
ffffffff800020a9:	74 1d                	je     ffffffff800020c8 <kmalloc+0x48>
ffffffff800020ab:	0f 1f 44 00 00       	nopl   0x0(%rax,%rax,1)
ffffffff800020b0:	80 7b 18 00          	cmpb   $0x0,0x18(%rbx)
ffffffff800020b4:	74 09                	je     ffffffff800020bf <kmalloc+0x3f>
ffffffff800020b6:	48 39 2b             	cmp    %rbp,(%rbx)
ffffffff800020b9:	0f 83 b9 00 00 00    	jae    ffffffff80002178 <kmalloc+0xf8>
ffffffff800020bf:	48 8b 5b 08          	mov    0x8(%rbx),%rbx
ffffffff800020c3:	48 85 db             	test   %rbx,%rbx
ffffffff800020c6:	75 e8                	jne    ffffffff800020b0 <kmalloc+0x30>
ffffffff800020c8:	48 c7 c7 fa 68 00 80 	mov    $0xffffffff800068fa,%rdi
ffffffff800020cf:	e8 dc 37 00 00       	call   ffffffff800058b0 <serial_write_line>
ffffffff800020d4:	48 8b 05 45 71 00 00 	mov    0x7145(%rip),%rax        # ffffffff80009220 <g_heap+0x10>
ffffffff800020db:	0f 1f 44 00 00       	nopl   0x0(%rax,%rax,1)
ffffffff800020e0:	49 89 c5             	mov    %rax,%r13
ffffffff800020e3:	48 8b 40 08          	mov    0x8(%rax),%rax
ffffffff800020e7:	48 85 c0             	test   %rax,%rax
ffffffff800020ea:	75 f4                	jne    ffffffff800020e0 <kmalloc+0x60>
ffffffff800020ec:	49 8b 45 00          	mov    0x0(%r13),%rax
ffffffff800020f0:	49 8d 44 05 20       	lea    0x20(%r13,%rax,1),%rax
ffffffff800020f5:	48 3b 05 1c 71 00 00 	cmp    0x711c(%rip),%rax        # ffffffff80009218 <g_heap+0x8>
ffffffff800020fc:	74 0c                	je     ffffffff8000210a <kmalloc+0x8a>
ffffffff800020fe:	48 c7 c7 10 70 00 80 	mov    $0xffffffff80007010,%rdi
ffffffff80002105:	e8 36 11 00 00       	call   ffffffff80003240 <panic>
ffffffff8000210a:	48 8d 9d 1f 10 00 00 	lea    0x101f(%rbp),%rbx
ffffffff80002111:	48 81 fb ff 0f 00 00 	cmp    $0xfff,%rbx
ffffffff80002118:	0f 86 dd 00 00 00    	jbe    ffffffff800021fb <kmalloc+0x17b>
ffffffff8000211e:	48 c1 eb 0c          	shr    $0xc,%rbx
ffffffff80002122:	49 89 dc             	mov    %rbx,%r12
ffffffff80002125:	89 df                	mov    %ebx,%edi
ffffffff80002127:	49 c1 e4 0c          	shl    $0xc,%r12
ffffffff8000212b:	e8 80 08 00 00       	call   ffffffff800029b0 <pmm_alloc_pages>
ffffffff80002130:	48 8b 35 e1 70 00 00 	mov    0x70e1(%rip),%rsi        # ffffffff80009218 <g_heap+0x8>
ffffffff80002137:	48 89 d9             	mov    %rbx,%rcx
ffffffff8000213a:	41 b8 02 00 00 00    	mov    $0x2,%r8d
ffffffff80002140:	48 89 c2             	mov    %rax,%rdx
ffffffff80002143:	48 c7 c7 00 92 00 80 	mov    $0xffffffff80009200,%rdi
ffffffff8000214a:	e8 51 f7 ff ff       	call   ffffffff800018a0 <vmm_map_pages>
ffffffff8000214f:	4c 01 25 c2 70 00 00 	add    %r12,0x70c2(%rip)        # ffffffff80009218 <g_heap+0x8>
ffffffff80002156:	41 80 7d 18 00       	cmpb   $0x0,0x18(%r13)
ffffffff8000215b:	0f 84 af 00 00 00    	je     ffffffff80002210 <kmalloc+0x190>
ffffffff80002161:	49 8b 45 00          	mov    0x0(%r13),%rax
ffffffff80002165:	4c 89 eb             	mov    %r13,%rbx
ffffffff80002168:	4c 01 e0             	add    %r12,%rax
ffffffff8000216b:	49 89 45 00          	mov    %rax,0x0(%r13)
ffffffff8000216f:	eb 0a                	jmp    ffffffff8000217b <kmalloc+0xfb>
ffffffff80002171:	0f 1f 80 00 00 00 00 	nopl   0x0(%rax)
ffffffff80002178:	48 8b 03             	mov    (%rbx),%rax
ffffffff8000217b:	48 39 e8             	cmp    %rbp,%rax
ffffffff8000217e:	72 58                	jb     ffffffff800021d8 <kmalloc+0x158>
ffffffff80002180:	48 8d 55 30          	lea    0x30(%rbp),%rdx
ffffffff80002184:	48 39 d0             	cmp    %rdx,%rax
ffffffff80002187:	73 17                	jae    ffffffff800021a0 <kmalloc+0x120>
ffffffff80002189:	c6 43 18 00          	movb   $0x0,0x18(%rbx)
ffffffff8000218d:	48 83 c4 08          	add    $0x8,%rsp
ffffffff80002191:	48 8d 43 20          	lea    0x20(%rbx),%rax
ffffffff80002195:	5b                   	pop    %rbx
ffffffff80002196:	5d                   	pop    %rbp
ffffffff80002197:	41 5c                	pop    %r12
ffffffff80002199:	41 5d                	pop    %r13
ffffffff8000219b:	c3                   	ret
ffffffff8000219c:	0f 1f 40 00          	nopl   0x0(%rax)
ffffffff800021a0:	48 8b 4b 08          	mov    0x8(%rbx),%rcx
ffffffff800021a4:	48 8d 54 2b 20       	lea    0x20(%rbx,%rbp,1),%rdx
ffffffff800021a9:	48 89 2b             	mov    %rbp,(%rbx)
ffffffff800021ac:	48 89 4a 08          	mov    %rcx,0x8(%rdx)
ffffffff800021b0:	48 85 c9             	test   %rcx,%rcx
ffffffff800021b3:	74 04                	je     ffffffff800021b9 <kmalloc+0x139>
ffffffff800021b5:	48 89 51 10          	mov    %rdx,0x10(%rcx)
ffffffff800021b9:	48 29 e8             	sub    %rbp,%rax
ffffffff800021bc:	48 89 5a 10          	mov    %rbx,0x10(%rdx)
ffffffff800021c0:	48 83 e8 20          	sub    $0x20,%rax
ffffffff800021c4:	c6 42 18 01          	movb   $0x1,0x18(%rdx)
ffffffff800021c8:	48 89 02             	mov    %rax,(%rdx)
ffffffff800021cb:	48 89 53 08          	mov    %rdx,0x8(%rbx)
ffffffff800021cf:	eb b8                	jmp    ffffffff80002189 <kmalloc+0x109>
ffffffff800021d1:	0f 1f 80 00 00 00 00 	nopl   0x0(%rax)
ffffffff800021d8:	48 c7 c7 68 70 00 80 	mov    $0xffffffff80007068,%rdi
ffffffff800021df:	e8 5c 10 00 00       	call   ffffffff80003240 <panic>
ffffffff800021e4:	48 8b 03             	mov    (%rbx),%rax
ffffffff800021e7:	48 8d 55 30          	lea    0x30(%rbp),%rdx
ffffffff800021eb:	48 39 d0             	cmp    %rdx,%rax
ffffffff800021ee:	72 99                	jb     ffffffff80002189 <kmalloc+0x109>
ffffffff800021f0:	eb ae                	jmp    ffffffff800021a0 <kmalloc+0x120>
ffffffff800021f2:	66 0f 1f 44 00 00    	nopw   0x0(%rax,%rax,1)
ffffffff800021f8:	31 c0                	xor    %eax,%eax
ffffffff800021fa:	c3                   	ret
ffffffff800021fb:	41 bc 00 10 00 00    	mov    $0x1000,%r12d
ffffffff80002201:	bf 01 00 00 00       	mov    $0x1,%edi
ffffffff80002206:	bb 01 00 00 00       	mov    $0x1,%ebx
ffffffff8000220b:	e9 1b ff ff ff       	jmp    ffffffff8000212b <kmalloc+0xab>
ffffffff80002210:	49 8b 45 00          	mov    0x0(%r13),%rax
ffffffff80002214:	49 8d 5c 05 20       	lea    0x20(%r13,%rax,1),%rbx
ffffffff80002219:	49 8d 44 24 e0       	lea    -0x20(%r12),%rax
ffffffff8000221e:	c6 43 18 01          	movb   $0x1,0x18(%rbx)
ffffffff80002222:	48 c7 43 08 00 00 00 	movq   $0x0,0x8(%rbx)
ffffffff80002229:	00 
ffffffff8000222a:	4c 89 6b 10          	mov    %r13,0x10(%rbx)
ffffffff8000222e:	48 89 03             	mov    %rax,(%rbx)
ffffffff80002231:	49 89 5d 08          	mov    %rbx,0x8(%r13)
ffffffff80002235:	e9 41 ff ff ff       	jmp    ffffffff8000217b <kmalloc+0xfb>
ffffffff8000223a:	66 0f 1f 44 00 00    	nopw   0x0(%rax,%rax,1)

ffffffff80002240 <kfree>:
ffffffff80002240:	f3 0f 1e fa          	endbr64
ffffffff80002244:	48 8b 05 d5 6f 00 00 	mov    0x6fd5(%rip),%rax        # ffffffff80009220 <g_heap+0x10>
ffffffff8000224b:	48 85 c0             	test   %rax,%rax
ffffffff8000224e:	74 1e                	je     ffffffff8000226e <kfree+0x2e>
ffffffff80002250:	48 39 f8             	cmp    %rdi,%rax
ffffffff80002253:	75 10                	jne    ffffffff80002265 <kfree+0x25>
ffffffff80002255:	eb 19                	jmp    ffffffff80002270 <kfree+0x30>
ffffffff80002257:	66 0f 1f 84 00 00 00 	nopw   0x0(%rax,%rax,1)
ffffffff8000225e:	00 00 
ffffffff80002260:	48 39 c7             	cmp    %rax,%rdi
ffffffff80002263:	74 0b                	je     ffffffff80002270 <kfree+0x30>
ffffffff80002265:	48 8b 40 08          	mov    0x8(%rax),%rax
ffffffff80002269:	48 85 c0             	test   %rax,%rax
ffffffff8000226c:	75 f2                	jne    ffffffff80002260 <kfree+0x20>
ffffffff8000226e:	c3                   	ret
ffffffff8000226f:	90                   	nop
ffffffff80002270:	c6 47 18 01          	movb   $0x1,0x18(%rdi)
ffffffff80002274:	c3                   	ret
ffffffff80002275:	66 66 2e 0f 1f 84 00 	data16 cs nopw 0x0(%rax,%rax,1)
ffffffff8000227c:	00 00 00 00 

ffffffff80002280 <get_kernel_heap>:
ffffffff80002280:	f3 0f 1e fa          	endbr64
ffffffff80002284:	48 c7 c0 10 92 00 80 	mov    $0xffffffff80009210,%rax
ffffffff8000228b:	c3                   	ret
ffffffff8000228c:	0f 1f 40 00          	nopl   0x0(%rax)

ffffffff80002290 <memset64>:
ffffffff80002290:	f3 0f 1e fa          	endbr64
ffffffff80002294:	48 85 d2             	test   %rdx,%rdx
ffffffff80002297:	74 27                	je     ffffffff800022c0 <memset64+0x30>
ffffffff80002299:	48 8d 04 d7          	lea    (%rdi,%rdx,8),%rax
ffffffff8000229d:	83 e2 01             	and    $0x1,%edx
ffffffff800022a0:	74 0e                	je     ffffffff800022b0 <memset64+0x20>
ffffffff800022a2:	48 89 37             	mov    %rsi,(%rdi)
ffffffff800022a5:	48 83 c7 08          	add    $0x8,%rdi
ffffffff800022a9:	48 39 c7             	cmp    %rax,%rdi
ffffffff800022ac:	74 13                	je     ffffffff800022c1 <memset64+0x31>
ffffffff800022ae:	66 90                	xchg   %ax,%ax
ffffffff800022b0:	48 89 37             	mov    %rsi,(%rdi)
ffffffff800022b3:	48 83 c7 10          	add    $0x10,%rdi
ffffffff800022b7:	48 89 77 f8          	mov    %rsi,-0x8(%rdi)
ffffffff800022bb:	48 39 c7             	cmp    %rax,%rdi
ffffffff800022be:	75 f0                	jne    ffffffff800022b0 <memset64+0x20>
ffffffff800022c0:	c3                   	ret
ffffffff800022c1:	c3                   	ret
ffffffff800022c2:	66 66 2e 0f 1f 84 00 	data16 cs nopw 0x0(%rax,%rax,1)
ffffffff800022c9:	00 00 00 00 
ffffffff800022cd:	0f 1f 00             	nopl   (%rax)

ffffffff800022d0 <memset8>:
ffffffff800022d0:	f3 0f 1e fa          	endbr64
ffffffff800022d4:	89 f0                	mov    %esi,%eax
ffffffff800022d6:	48 85 d2             	test   %rdx,%rdx
ffffffff800022d9:	74 23                	je     ffffffff800022fe <memset8+0x2e>
ffffffff800022db:	48 8d 0c 17          	lea    (%rdi,%rdx,1),%rcx
ffffffff800022df:	83 e2 01             	and    $0x1,%edx
ffffffff800022e2:	74 0c                	je     ffffffff800022f0 <memset8+0x20>
ffffffff800022e4:	40 88 37             	mov    %sil,(%rdi)
ffffffff800022e7:	48 83 c7 01          	add    $0x1,%rdi
ffffffff800022eb:	48 39 cf             	cmp    %rcx,%rdi
ffffffff800022ee:	74 0f                	je     ffffffff800022ff <memset8+0x2f>
ffffffff800022f0:	88 07                	mov    %al,(%rdi)
ffffffff800022f2:	48 83 c7 02          	add    $0x2,%rdi
ffffffff800022f6:	88 47 ff             	mov    %al,-0x1(%rdi)
ffffffff800022f9:	48 39 cf             	cmp    %rcx,%rdi
ffffffff800022fc:	75 f2                	jne    ffffffff800022f0 <memset8+0x20>
ffffffff800022fe:	c3                   	ret
ffffffff800022ff:	c3                   	ret

ffffffff80002300 <memcpy8>:
ffffffff80002300:	f3 0f 1e fa          	endbr64
ffffffff80002304:	48 85 d2             	test   %rdx,%rdx
ffffffff80002307:	74 17                	je     ffffffff80002320 <memcpy8+0x20>
ffffffff80002309:	31 c0                	xor    %eax,%eax
ffffffff8000230b:	0f 1f 44 00 00       	nopl   0x0(%rax,%rax,1)
ffffffff80002310:	0f b6 0c 06          	movzbl (%rsi,%rax,1),%ecx
ffffffff80002314:	88 0c 07             	mov    %cl,(%rdi,%rax,1)
ffffffff80002317:	48 83 c0 01          	add    $0x1,%rax
ffffffff8000231b:	48 39 c2             	cmp    %rax,%rdx
ffffffff8000231e:	75 f0                	jne    ffffffff80002310 <memcpy8+0x10>
ffffffff80002320:	c3                   	ret
ffffffff80002321:	66 2e 0f 1f 84 00 00 	cs nopw 0x0(%rax,%rax,1)
ffffffff80002328:	00 00 00 
ffffffff8000232b:	0f 1f 44 00 00       	nopl   0x0(%rax,%rax,1)

ffffffff80002330 <memory_get_total_usable_bytes>:
ffffffff80002330:	f3 0f 1e fa          	endbr64
ffffffff80002334:	48 8b 47 18          	mov    0x18(%rdi),%rax
ffffffff80002338:	48 8b 4f 20          	mov    0x20(%rdi),%rcx
ffffffff8000233c:	48 01 c1             	add    %rax,%rcx
ffffffff8000233f:	48 39 c8             	cmp    %rcx,%rax
ffffffff80002342:	73 2c                	jae    ffffffff80002370 <memory_get_total_usable_bytes+0x40>
ffffffff80002344:	48 8b 77 28          	mov    0x28(%rdi),%rsi
ffffffff80002348:	31 ff                	xor    %edi,%edi
ffffffff8000234a:	66 0f 1f 44 00 00    	nopw   0x0(%rax,%rax,1)
ffffffff80002350:	83 38 07             	cmpl   $0x7,(%rax)
ffffffff80002353:	75 0b                	jne    ffffffff80002360 <memory_get_total_usable_bytes+0x30>
ffffffff80002355:	48 8b 50 18          	mov    0x18(%rax),%rdx
ffffffff80002359:	48 c1 e2 0c          	shl    $0xc,%rdx
ffffffff8000235d:	48 01 d7             	add    %rdx,%rdi
ffffffff80002360:	48 01 f0             	add    %rsi,%rax
ffffffff80002363:	48 39 c8             	cmp    %rcx,%rax
ffffffff80002366:	72 e8                	jb     ffffffff80002350 <memory_get_total_usable_bytes+0x20>
ffffffff80002368:	48 89 f8             	mov    %rdi,%rax
ffffffff8000236b:	c3                   	ret
ffffffff8000236c:	0f 1f 40 00          	nopl   0x0(%rax)
ffffffff80002370:	31 ff                	xor    %edi,%edi
ffffffff80002372:	48 89 f8             	mov    %rdi,%rax
ffffffff80002375:	c3                   	ret
ffffffff80002376:	66 2e 0f 1f 84 00 00 	cs nopw 0x0(%rax,%rax,1)
ffffffff8000237d:	00 00 00 

ffffffff80002380 <memory_map_print>:
ffffffff80002380:	f3 0f 1e fa          	endbr64
ffffffff80002384:	41 54                	push   %r12
ffffffff80002386:	55                   	push   %rbp
ffffffff80002387:	48 89 fd             	mov    %rdi,%rbp
ffffffff8000238a:	48 c7 c7 11 69 00 80 	mov    $0xffffffff80006911,%rdi
ffffffff80002391:	53                   	push   %rbx
ffffffff80002392:	e8 d9 0a 00 00       	call   ffffffff80002e70 <console_write>
ffffffff80002397:	48 8b 5d 18          	mov    0x18(%rbp),%rbx
ffffffff8000239b:	4c 8b 65 20          	mov    0x20(%rbp),%r12
ffffffff8000239f:	49 01 dc             	add    %rbx,%r12
ffffffff800023a2:	4c 39 e3             	cmp    %r12,%rbx
ffffffff800023a5:	0f 83 83 00 00 00    	jae    ffffffff8000242e <memory_map_print+0xae>
ffffffff800023ab:	0f 1f 44 00 00       	nopl   0x0(%rax,%rax,1)
ffffffff800023b0:	48 c7 c7 23 69 00 80 	mov    $0xffffffff80006923,%rdi
ffffffff800023b7:	e8 b4 0a 00 00       	call   ffffffff80002e70 <console_write>
ffffffff800023bc:	8b 03                	mov    (%rbx),%eax
ffffffff800023be:	48 c7 c7 09 69 00 80 	mov    $0xffffffff80006909,%rdi
ffffffff800023c5:	83 f8 0e             	cmp    $0xe,%eax
ffffffff800023c8:	77 08                	ja     ffffffff800023d2 <memory_map_print+0x52>
ffffffff800023ca:	48 8b 3c c5 00 60 00 	mov    -0x7fffa000(,%rax,8),%rdi
ffffffff800023d1:	80 
ffffffff800023d2:	e8 99 0a 00 00       	call   ffffffff80002e70 <console_write>
ffffffff800023d7:	48 c7 c7 2a 69 00 80 	mov    $0xffffffff8000692a,%rdi
ffffffff800023de:	e8 8d 0a 00 00       	call   ffffffff80002e70 <console_write>
ffffffff800023e3:	48 8b 7b 08          	mov    0x8(%rbx),%rdi
ffffffff800023e7:	e8 e4 0a 00 00       	call   ffffffff80002ed0 <console_write_hex64>
ffffffff800023ec:	48 c7 c7 33 69 00 80 	mov    $0xffffffff80006933,%rdi
ffffffff800023f3:	e8 78 0a 00 00       	call   ffffffff80002e70 <console_write>
ffffffff800023f8:	8b 7b 18             	mov    0x18(%rbx),%edi
ffffffff800023fb:	e8 40 0b 00 00       	call   ffffffff80002f40 <console_write_u32>
ffffffff80002400:	48 c7 c7 3b 69 00 80 	mov    $0xffffffff8000693b,%rdi
ffffffff80002407:	e8 64 0a 00 00       	call   ffffffff80002e70 <console_write>
ffffffff8000240c:	48 8b 7b 18          	mov    0x18(%rbx),%rdi
ffffffff80002410:	48 c1 e7 0c          	shl    $0xc,%rdi
ffffffff80002414:	e8 b7 0a 00 00       	call   ffffffff80002ed0 <console_write_hex64>
ffffffff80002419:	48 c7 c7 7a 6b 00 80 	mov    $0xffffffff80006b7a,%rdi
ffffffff80002420:	e8 4b 0a 00 00       	call   ffffffff80002e70 <console_write>
ffffffff80002425:	48 03 5d 28          	add    0x28(%rbp),%rbx
ffffffff80002429:	4c 39 e3             	cmp    %r12,%rbx
ffffffff8000242c:	72 82                	jb     ffffffff800023b0 <memory_map_print+0x30>
ffffffff8000242e:	48 c7 c7 43 69 00 80 	mov    $0xffffffff80006943,%rdi
ffffffff80002435:	e8 36 0a 00 00       	call   ffffffff80002e70 <console_write>
ffffffff8000243a:	48 8b 45 18          	mov    0x18(%rbp),%rax
ffffffff8000243e:	48 8b 4d 20          	mov    0x20(%rbp),%rcx
ffffffff80002442:	48 01 c1             	add    %rax,%rcx
ffffffff80002445:	48 39 c8             	cmp    %rcx,%rax
ffffffff80002448:	73 36                	jae    ffffffff80002480 <memory_map_print+0x100>
ffffffff8000244a:	48 8b 75 28          	mov    0x28(%rbp),%rsi
ffffffff8000244e:	31 ff                	xor    %edi,%edi
ffffffff80002450:	83 38 07             	cmpl   $0x7,(%rax)
ffffffff80002453:	75 0b                	jne    ffffffff80002460 <memory_map_print+0xe0>
ffffffff80002455:	48 8b 50 18          	mov    0x18(%rax),%rdx
ffffffff80002459:	48 c1 e2 0c          	shl    $0xc,%rdx
ffffffff8000245d:	48 01 d7             	add    %rdx,%rdi
ffffffff80002460:	48 01 f0             	add    %rsi,%rax
ffffffff80002463:	48 39 c8             	cmp    %rcx,%rax
ffffffff80002466:	72 e8                	jb     ffffffff80002450 <memory_map_print+0xd0>
ffffffff80002468:	e8 63 0a 00 00       	call   ffffffff80002ed0 <console_write_hex64>
ffffffff8000246d:	5b                   	pop    %rbx
ffffffff8000246e:	48 c7 c7 7a 6b 00 80 	mov    $0xffffffff80006b7a,%rdi
ffffffff80002475:	5d                   	pop    %rbp
ffffffff80002476:	41 5c                	pop    %r12
ffffffff80002478:	e9 f3 09 00 00       	jmp    ffffffff80002e70 <console_write>
ffffffff8000247d:	0f 1f 00             	nopl   (%rax)
ffffffff80002480:	31 ff                	xor    %edi,%edi
ffffffff80002482:	eb e4                	jmp    ffffffff80002468 <memory_map_print+0xe8>
ffffffff80002484:	66 2e 0f 1f 84 00 00 	cs nopw 0x0(%rax,%rax,1)
ffffffff8000248b:	00 00 00 
ffffffff8000248e:	66 90                	xchg   %ax,%ax

ffffffff80002490 <pmm_reserve_region>:
ffffffff80002490:	48 63 f6             	movslq %esi,%rsi
ffffffff80002493:	48 89 f8             	mov    %rdi,%rax
ffffffff80002496:	48 8d bc 37 ff 0f 00 	lea    0xfff(%rdi,%rsi,1),%rdi
ffffffff8000249d:	00 
ffffffff8000249e:	48 25 00 f0 ff ff    	and    $0xfffffffffffff000,%rax
ffffffff800024a4:	48 81 e7 00 f0 ff ff 	and    $0xfffffffffffff000,%rdi
ffffffff800024ab:	48 29 c7             	sub    %rax,%rdi
ffffffff800024ae:	48 c1 ef 0c          	shr    $0xc,%rdi
ffffffff800024b2:	74 7c                	je     ffffffff80002530 <pmm_reserve_region+0xa0>
ffffffff800024b4:	48 c1 e7 0c          	shl    $0xc,%rdi
ffffffff800024b8:	4c 8b 15 a9 6d 00 00 	mov    0x6da9(%rip),%r10        # ffffffff80009268 <g_pmm+0x28>
ffffffff800024bf:	53                   	push   %rbx
ffffffff800024c0:	45 31 db             	xor    %r11d,%r11d
ffffffff800024c3:	4c 8b 0d 8e 6d 00 00 	mov    0x6d8e(%rip),%r9        # ffffffff80009258 <g_pmm+0x18>
ffffffff800024ca:	48 01 c7             	add    %rax,%rdi
ffffffff800024cd:	bb 01 00 00 00       	mov    $0x1,%ebx
ffffffff800024d2:	66 0f 1f 44 00 00    	nopw   0x0(%rax,%rax,1)
ffffffff800024d8:	48 89 c2             	mov    %rax,%rdx
ffffffff800024db:	48 89 c1             	mov    %rax,%rcx
ffffffff800024de:	48 c1 ea 0f          	shr    $0xf,%rdx
ffffffff800024e2:	48 c1 e9 0c          	shr    $0xc,%rcx
ffffffff800024e6:	4c 01 d2             	add    %r10,%rdx
ffffffff800024e9:	83 e1 07             	and    $0x7,%ecx
ffffffff800024ec:	44 0f b6 02          	movzbl (%rdx),%r8d
ffffffff800024f0:	41 0f a3 c8          	bt     %ecx,%r8d
ffffffff800024f4:	44 89 c6             	mov    %r8d,%esi
ffffffff800024f7:	72 19                	jb     ffffffff80002512 <pmm_reserve_region+0x82>
ffffffff800024f9:	41 89 db             	mov    %ebx,%r11d
ffffffff800024fc:	49 81 c1 00 10 00 00 	add    $0x1000,%r9
ffffffff80002503:	41 d3 e3             	shl    %cl,%r11d
ffffffff80002506:	44 09 de             	or     %r11d,%esi
ffffffff80002509:	41 bb 01 00 00 00    	mov    $0x1,%r11d
ffffffff8000250f:	40 88 32             	mov    %sil,(%rdx)
ffffffff80002512:	48 05 00 10 00 00    	add    $0x1000,%rax
ffffffff80002518:	48 39 f8             	cmp    %rdi,%rax
ffffffff8000251b:	75 bb                	jne    ffffffff800024d8 <pmm_reserve_region+0x48>
ffffffff8000251d:	45 84 db             	test   %r11b,%r11b
ffffffff80002520:	74 07                	je     ffffffff80002529 <pmm_reserve_region+0x99>
ffffffff80002522:	4c 89 0d 2f 6d 00 00 	mov    %r9,0x6d2f(%rip)        # ffffffff80009258 <g_pmm+0x18>
ffffffff80002529:	5b                   	pop    %rbx
ffffffff8000252a:	c3                   	ret
ffffffff8000252b:	0f 1f 44 00 00       	nopl   0x0(%rax,%rax,1)
ffffffff80002530:	c3                   	ret
ffffffff80002531:	66 66 2e 0f 1f 84 00 	data16 cs nopw 0x0(%rax,%rax,1)
ffffffff80002538:	00 00 00 00 
ffffffff8000253c:	0f 1f 40 00          	nopl   0x0(%rax)

ffffffff80002540 <pmm_init>:
ffffffff80002540:	f3 0f 1e fa          	endbr64
ffffffff80002544:	41 56                	push   %r14
ffffffff80002546:	41 55                	push   %r13
ffffffff80002548:	41 54                	push   %r12
ffffffff8000254a:	49 89 fc             	mov    %rdi,%r12
ffffffff8000254d:	55                   	push   %rbp
ffffffff8000254e:	53                   	push   %rbx
ffffffff8000254f:	48 8b 47 18          	mov    0x18(%rdi),%rax
ffffffff80002553:	48 8b 6f 20          	mov    0x20(%rdi),%rbp
ffffffff80002557:	48 01 c5             	add    %rax,%rbp
ffffffff8000255a:	48 39 e8             	cmp    %rbp,%rax
ffffffff8000255d:	0f 83 fc 01 00 00    	jae    ffffffff8000275f <pmm_init+0x21f>
ffffffff80002563:	48 8b 7f 28          	mov    0x28(%rdi),%rdi
ffffffff80002567:	48 89 c2             	mov    %rax,%rdx
ffffffff8000256a:	48 89 c1             	mov    %rax,%rcx
ffffffff8000256d:	31 f6                	xor    %esi,%esi
ffffffff8000256f:	90                   	nop
ffffffff80002570:	48 03 71 18          	add    0x18(%rcx),%rsi
ffffffff80002574:	48 01 f9             	add    %rdi,%rcx
ffffffff80002577:	48 39 e9             	cmp    %rbp,%rcx
ffffffff8000257a:	72 f4                	jb     ffffffff80002570 <pmm_init+0x30>
ffffffff8000257c:	4c 8d 46 07          	lea    0x7(%rsi),%r8
ffffffff80002580:	48 89 35 d9 6c 00 00 	mov    %rsi,0x6cd9(%rip)        # ffffffff80009260 <g_pmm+0x20>
ffffffff80002587:	48 c1 e6 0c          	shl    $0xc,%rsi
ffffffff8000258b:	49 c1 e8 03          	shr    $0x3,%r8
ffffffff8000258f:	48 c7 05 ce 6c 00 00 	movq   $0x0,0x6cce(%rip)        # ffffffff80009268 <g_pmm+0x28>
ffffffff80002596:	00 00 00 00 
ffffffff8000259a:	4c 89 05 cf 6c 00 00 	mov    %r8,0x6ccf(%rip)        # ffffffff80009270 <g_pmm+0x30>
ffffffff800025a1:	48 89 35 b0 6c 00 00 	mov    %rsi,0x6cb0(%rip)        # ffffffff80009258 <g_pmm+0x18>
ffffffff800025a8:	48 c7 05 c5 6c 00 00 	movq   $0x0,0x6cc5(%rip)        # ffffffff80009278 <g_pmm+0x38>
ffffffff800025af:	00 00 00 00 
ffffffff800025b3:	48 c7 05 c2 6c 00 00 	movq   $0x0,0x6cc2(%rip)        # ffffffff80009280 <g_pmm+0x40>
ffffffff800025ba:	00 00 00 00 
ffffffff800025be:	eb 0c                	jmp    ffffffff800025cc <pmm_init+0x8c>
ffffffff800025c0:	48 01 fa             	add    %rdi,%rdx
ffffffff800025c3:	48 39 ea             	cmp    %rbp,%rdx
ffffffff800025c6:	0f 83 c4 01 00 00    	jae    ffffffff80002790 <pmm_init+0x250>
ffffffff800025cc:	83 3a 07             	cmpl   $0x7,(%rdx)
ffffffff800025cf:	75 ef                	jne    ffffffff800025c0 <pmm_init+0x80>
ffffffff800025d1:	48 8b 4a 18          	mov    0x18(%rdx),%rcx
ffffffff800025d5:	48 c1 e1 0c          	shl    $0xc,%rcx
ffffffff800025d9:	4c 39 c1             	cmp    %r8,%rcx
ffffffff800025dc:	72 e2                	jb     ffffffff800025c0 <pmm_init+0x80>
ffffffff800025de:	4c 8b 52 08          	mov    0x8(%rdx),%r10
ffffffff800025e2:	4c 89 15 7f 6c 00 00 	mov    %r10,0x6c7f(%rip)        # ffffffff80009268 <g_pmm+0x28>
ffffffff800025e9:	4d 85 d2             	test   %r10,%r10
ffffffff800025ec:	0f 84 9e 01 00 00    	je     ffffffff80002790 <pmm_init+0x250>
ffffffff800025f2:	4d 85 c0             	test   %r8,%r8
ffffffff800025f5:	74 3f                	je     ffffffff80002636 <pmm_init+0xf6>
ffffffff800025f7:	4c 89 d0             	mov    %r10,%rax
ffffffff800025fa:	4b 8d 14 10          	lea    (%r8,%r10,1),%rdx
ffffffff800025fe:	41 f6 c0 01          	test   $0x1,%r8b
ffffffff80002602:	74 14                	je     ffffffff80002618 <pmm_init+0xd8>
ffffffff80002604:	49 8d 42 01          	lea    0x1(%r10),%rax
ffffffff80002608:	41 c6 02 ff          	movb   $0xff,(%r10)
ffffffff8000260c:	48 39 d0             	cmp    %rdx,%rax
ffffffff8000260f:	74 17                	je     ffffffff80002628 <pmm_init+0xe8>
ffffffff80002611:	0f 1f 80 00 00 00 00 	nopl   0x0(%rax)
ffffffff80002618:	c6 00 ff             	movb   $0xff,(%rax)
ffffffff8000261b:	48 83 c0 02          	add    $0x2,%rax
ffffffff8000261f:	c6 40 ff ff          	movb   $0xff,-0x1(%rax)
ffffffff80002623:	48 39 d0             	cmp    %rdx,%rax
ffffffff80002626:	75 f0                	jne    ffffffff80002618 <pmm_init+0xd8>
ffffffff80002628:	49 8b 44 24 18       	mov    0x18(%r12),%rax
ffffffff8000262d:	48 39 e8             	cmp    %rbp,%rax
ffffffff80002630:	0f 83 c1 00 00 00    	jae    ffffffff800026f7 <pmm_init+0x1b7>
ffffffff80002636:	4c 8b 1d 1b 6c 00 00 	mov    0x6c1b(%rip),%r11        # ffffffff80009258 <g_pmm+0x18>
ffffffff8000263d:	31 d2                	xor    %edx,%edx
ffffffff8000263f:	45 31 f6             	xor    %r14d,%r14d
ffffffff80002642:	41 bd 01 00 00 00    	mov    $0x1,%r13d
ffffffff80002648:	eb 14                	jmp    ffffffff8000265e <pmm_init+0x11e>
ffffffff8000264a:	66 0f 1f 44 00 00    	nopw   0x0(%rax,%rax,1)
ffffffff80002650:	49 03 44 24 28       	add    0x28(%r12),%rax
ffffffff80002655:	48 39 e8             	cmp    %rbp,%rax
ffffffff80002658:	0f 83 82 00 00 00    	jae    ffffffff800026e0 <pmm_init+0x1a0>
ffffffff8000265e:	83 38 07             	cmpl   $0x7,(%rax)
ffffffff80002661:	75 ed                	jne    ffffffff80002650 <pmm_init+0x110>
ffffffff80002663:	48 83 78 18 00       	cmpq   $0x0,0x18(%rax)
ffffffff80002668:	74 e6                	je     ffffffff80002650 <pmm_init+0x110>
ffffffff8000266a:	31 f6                	xor    %esi,%esi
ffffffff8000266c:	eb 0c                	jmp    ffffffff8000267a <pmm_init+0x13a>
ffffffff8000266e:	66 90                	xchg   %ax,%ax
ffffffff80002670:	48 83 c6 01          	add    $0x1,%rsi
ffffffff80002674:	48 3b 70 18          	cmp    0x18(%rax),%rsi
ffffffff80002678:	73 50                	jae    ffffffff800026ca <pmm_init+0x18a>
ffffffff8000267a:	48 89 f3             	mov    %rsi,%rbx
ffffffff8000267d:	48 c1 e3 0c          	shl    $0xc,%rbx
ffffffff80002681:	48 03 58 08          	add    0x8(%rax),%rbx
ffffffff80002685:	48 89 da             	mov    %rbx,%rdx
ffffffff80002688:	48 89 d9             	mov    %rbx,%rcx
ffffffff8000268b:	48 c1 ea 0f          	shr    $0xf,%rdx
ffffffff8000268f:	48 c1 e9 0c          	shr    $0xc,%rcx
ffffffff80002693:	4c 01 d2             	add    %r10,%rdx
ffffffff80002696:	83 e1 07             	and    $0x7,%ecx
ffffffff80002699:	44 0f b6 0a          	movzbl (%rdx),%r9d
ffffffff8000269d:	41 0f a3 c9          	bt     %ecx,%r9d
ffffffff800026a1:	73 cd                	jae    ffffffff80002670 <pmm_init+0x130>
ffffffff800026a3:	45 89 ee             	mov    %r13d,%r14d
ffffffff800026a6:	49 81 eb 00 10 00 00 	sub    $0x1000,%r11
ffffffff800026ad:	48 83 c6 01          	add    $0x1,%rsi
ffffffff800026b1:	41 d3 e6             	shl    %cl,%r14d
ffffffff800026b4:	44 89 f1             	mov    %r14d,%ecx
ffffffff800026b7:	41 be 01 00 00 00    	mov    $0x1,%r14d
ffffffff800026bd:	f7 d1                	not    %ecx
ffffffff800026bf:	44 21 c9             	and    %r9d,%ecx
ffffffff800026c2:	88 0a                	mov    %cl,(%rdx)
ffffffff800026c4:	48 3b 70 18          	cmp    0x18(%rax),%rsi
ffffffff800026c8:	72 b0                	jb     ffffffff8000267a <pmm_init+0x13a>
ffffffff800026ca:	49 03 44 24 28       	add    0x28(%r12),%rax
ffffffff800026cf:	ba 01 00 00 00       	mov    $0x1,%edx
ffffffff800026d4:	48 39 e8             	cmp    %rbp,%rax
ffffffff800026d7:	72 85                	jb     ffffffff8000265e <pmm_init+0x11e>
ffffffff800026d9:	0f 1f 80 00 00 00 00 	nopl   0x0(%rax)
ffffffff800026e0:	84 d2                	test   %dl,%dl
ffffffff800026e2:	74 07                	je     ffffffff800026eb <pmm_init+0x1ab>
ffffffff800026e4:	48 89 1d 95 6b 00 00 	mov    %rbx,0x6b95(%rip)        # ffffffff80009280 <g_pmm+0x40>
ffffffff800026eb:	45 84 f6             	test   %r14b,%r14b
ffffffff800026ee:	74 07                	je     ffffffff800026f7 <pmm_init+0x1b7>
ffffffff800026f0:	4c 89 1d 61 6b 00 00 	mov    %r11,0x6b61(%rip)        # ffffffff80009258 <g_pmm+0x18>
ffffffff800026f7:	41 0f b6 02          	movzbl (%r10),%eax
ffffffff800026fb:	a8 01                	test   $0x1,%al
ffffffff800026fd:	75 11                	jne    ffffffff80002710 <pmm_init+0x1d0>
ffffffff800026ff:	48 81 05 4e 6b 00 00 	addq   $0x1000,0x6b4e(%rip)        # ffffffff80009258 <g_pmm+0x18>
ffffffff80002706:	00 10 00 00 
ffffffff8000270a:	83 c8 01             	or     $0x1,%eax
ffffffff8000270d:	41 88 02             	mov    %al,(%r10)
ffffffff80002710:	44 89 c6             	mov    %r8d,%esi
ffffffff80002713:	4c 89 d7             	mov    %r10,%rdi
ffffffff80002716:	e8 75 fd ff ff       	call   ffffffff80002490 <pmm_reserve_region>
ffffffff8000271b:	48 c7 c6 00 90 21 00 	mov    $0x219000,%rsi
ffffffff80002722:	48 c7 c7 00 e0 20 00 	mov    $0x20e000,%rdi
ffffffff80002729:	48 81 ee 00 e0 20 00 	sub    $0x20e000,%rsi
ffffffff80002730:	e8 5b fd ff ff       	call   ffffffff80002490 <pmm_reserve_region>
ffffffff80002735:	48 c7 c7 17 6a 00 80 	mov    $0xffffffff80006a17,%rdi
ffffffff8000273c:	e8 1f 31 00 00       	call   ffffffff80005860 <serial_write>
ffffffff80002741:	48 8b 3d 18 6b 00 00 	mov    0x6b18(%rip),%rdi        # ffffffff80009260 <g_pmm+0x20>
ffffffff80002748:	e8 c3 31 00 00       	call   ffffffff80005910 <serial_write_ulong>
ffffffff8000274d:	5b                   	pop    %rbx
ffffffff8000274e:	bf 0a 00 00 00       	mov    $0xa,%edi
ffffffff80002753:	5d                   	pop    %rbp
ffffffff80002754:	41 5c                	pop    %r12
ffffffff80002756:	41 5d                	pop    %r13
ffffffff80002758:	41 5e                	pop    %r14
ffffffff8000275a:	e9 d1 30 00 00       	jmp    ffffffff80005830 <serial_write_char>
ffffffff8000275f:	48 c7 05 fe 6a 00 00 	movq   $0x0,0x6afe(%rip)        # ffffffff80009268 <g_pmm+0x28>
ffffffff80002766:	00 00 00 00 
ffffffff8000276a:	66 0f ef c0          	pxor   %xmm0,%xmm0
ffffffff8000276e:	48 c7 05 07 6b 00 00 	movq   $0x0,0x6b07(%rip)        # ffffffff80009280 <g_pmm+0x40>
ffffffff80002775:	00 00 00 00 
ffffffff80002779:	0f 11 05 d8 6a 00 00 	movups %xmm0,0x6ad8(%rip)        # ffffffff80009258 <g_pmm+0x18>
ffffffff80002780:	0f 29 05 e9 6a 00 00 	movaps %xmm0,0x6ae9(%rip)        # ffffffff80009270 <g_pmm+0x30>
ffffffff80002787:	66 0f 1f 84 00 00 00 	nopw   0x0(%rax,%rax,1)
ffffffff8000278e:	00 00 
ffffffff80002790:	48 c7 c7 b8 70 00 80 	mov    $0xffffffff800070b8,%rdi
ffffffff80002797:	e8 a4 0a 00 00       	call   ffffffff80003240 <panic>
ffffffff8000279c:	4c 8b 05 cd 6a 00 00 	mov    0x6acd(%rip),%r8        # ffffffff80009270 <g_pmm+0x30>
ffffffff800027a3:	4c 8b 15 be 6a 00 00 	mov    0x6abe(%rip),%r10        # ffffffff80009268 <g_pmm+0x28>
ffffffff800027aa:	4d 85 c0             	test   %r8,%r8
ffffffff800027ad:	0f 85 44 fe ff ff    	jne    ffffffff800025f7 <pmm_init+0xb7>
ffffffff800027b3:	e9 70 fe ff ff       	jmp    ffffffff80002628 <pmm_init+0xe8>
ffffffff800027b8:	0f 1f 84 00 00 00 00 	nopl   0x0(%rax,%rax,1)
ffffffff800027bf:	00 

ffffffff800027c0 <pmm_alloc_page>:
ffffffff800027c0:	f3 0f 1e fa          	endbr64
ffffffff800027c4:	4c 8b 15 ad 6a 00 00 	mov    0x6aad(%rip),%r10        # ffffffff80009278 <g_pmm+0x38>
ffffffff800027cb:	4c 8b 05 8e 6a 00 00 	mov    0x6a8e(%rip),%r8        # ffffffff80009260 <g_pmm+0x20>
ffffffff800027d2:	4d 39 c2             	cmp    %r8,%r10
ffffffff800027d5:	73 4b                	jae    ffffffff80002822 <pmm_alloc_page+0x62>
ffffffff800027d7:	4c 8b 0d 8a 6a 00 00 	mov    0x6a8a(%rip),%r9        # ffffffff80009268 <g_pmm+0x28>
ffffffff800027de:	4c 89 d2             	mov    %r10,%rdx
ffffffff800027e1:	44 89 d1             	mov    %r10d,%ecx
ffffffff800027e4:	48 c1 ea 03          	shr    $0x3,%rdx
ffffffff800027e8:	83 e1 07             	and    $0x7,%ecx
ffffffff800027eb:	4c 01 ca             	add    %r9,%rdx
ffffffff800027ee:	0f b6 02             	movzbl (%rdx),%eax
ffffffff800027f1:	0f a3 c8             	bt     %ecx,%eax
ffffffff800027f4:	89 c6                	mov    %eax,%esi
ffffffff800027f6:	4c 89 d0             	mov    %r10,%rax
ffffffff800027f9:	72 1e                	jb     ffffffff80002819 <pmm_alloc_page+0x59>
ffffffff800027fb:	e9 80 00 00 00       	jmp    ffffffff80002880 <pmm_alloc_page+0xc0>
ffffffff80002800:	48 89 c2             	mov    %rax,%rdx
ffffffff80002803:	89 c1                	mov    %eax,%ecx
ffffffff80002805:	48 c1 ea 03          	shr    $0x3,%rdx
ffffffff80002809:	83 e1 07             	and    $0x7,%ecx
ffffffff8000280c:	4c 01 ca             	add    %r9,%rdx
ffffffff8000280f:	0f b6 3a             	movzbl (%rdx),%edi
ffffffff80002812:	0f a3 cf             	bt     %ecx,%edi
ffffffff80002815:	89 fe                	mov    %edi,%esi
ffffffff80002817:	73 67                	jae    ffffffff80002880 <pmm_alloc_page+0xc0>
ffffffff80002819:	48 83 c0 01          	add    $0x1,%rax
ffffffff8000281d:	4c 39 c0             	cmp    %r8,%rax
ffffffff80002820:	75 de                	jne    ffffffff80002800 <pmm_alloc_page+0x40>
ffffffff80002822:	4d 85 d2             	test   %r10,%r10
ffffffff80002825:	74 3e                	je     ffffffff80002865 <pmm_alloc_page+0xa5>
ffffffff80002827:	4c 8b 05 3a 6a 00 00 	mov    0x6a3a(%rip),%r8        # ffffffff80009268 <g_pmm+0x28>
ffffffff8000282e:	41 0f b6 30          	movzbl (%r8),%esi
ffffffff80002832:	40 f6 c6 01          	test   $0x1,%sil
ffffffff80002836:	0f 84 9c 00 00 00    	je     ffffffff800028d8 <pmm_alloc_page+0x118>
ffffffff8000283c:	31 c0                	xor    %eax,%eax
ffffffff8000283e:	eb 19                	jmp    ffffffff80002859 <pmm_alloc_page+0x99>
ffffffff80002840:	48 89 c2             	mov    %rax,%rdx
ffffffff80002843:	89 c1                	mov    %eax,%ecx
ffffffff80002845:	48 c1 ea 03          	shr    $0x3,%rdx
ffffffff80002849:	83 e1 07             	and    $0x7,%ecx
ffffffff8000284c:	4c 01 c2             	add    %r8,%rdx
ffffffff8000284f:	0f b6 3a             	movzbl (%rdx),%edi
ffffffff80002852:	0f a3 cf             	bt     %ecx,%edi
ffffffff80002855:	89 fe                	mov    %edi,%esi
ffffffff80002857:	73 57                	jae    ffffffff800028b0 <pmm_alloc_page+0xf0>
ffffffff80002859:	49 89 c1             	mov    %rax,%r9
ffffffff8000285c:	48 83 c0 01          	add    $0x1,%rax
ffffffff80002860:	49 39 c2             	cmp    %rax,%r10
ffffffff80002863:	75 db                	jne    ffffffff80002840 <pmm_alloc_page+0x80>
ffffffff80002865:	48 83 ec 08          	sub    $0x8,%rsp
ffffffff80002869:	48 c7 c7 1f 6a 00 80 	mov    $0xffffffff80006a1f,%rdi
ffffffff80002870:	e8 cb 09 00 00       	call   ffffffff80003240 <panic>
ffffffff80002875:	31 c0                	xor    %eax,%eax
ffffffff80002877:	48 83 c4 08          	add    $0x8,%rsp
ffffffff8000287b:	c3                   	ret
ffffffff8000287c:	0f 1f 40 00          	nopl   0x0(%rax)
ffffffff80002880:	48 81 05 cd 69 00 00 	addq   $0x1000,0x69cd(%rip)        # ffffffff80009258 <g_pmm+0x18>
ffffffff80002887:	00 10 00 00 
ffffffff8000288b:	bf 01 00 00 00       	mov    $0x1,%edi
ffffffff80002890:	d3 e7                	shl    %cl,%edi
ffffffff80002892:	09 fe                	or     %edi,%esi
ffffffff80002894:	40 88 32             	mov    %sil,(%rdx)
ffffffff80002897:	48 8d 50 01          	lea    0x1(%rax),%rdx
ffffffff8000289b:	48 c1 e0 0c          	shl    $0xc,%rax
ffffffff8000289f:	48 89 15 d2 69 00 00 	mov    %rdx,0x69d2(%rip)        # ffffffff80009278 <g_pmm+0x38>
ffffffff800028a6:	c3                   	ret
ffffffff800028a7:	66 0f 1f 84 00 00 00 	nopw   0x0(%rax,%rax,1)
ffffffff800028ae:	00 00 
ffffffff800028b0:	bf 01 00 00 00       	mov    $0x1,%edi
ffffffff800028b5:	49 83 c1 02          	add    $0x2,%r9
ffffffff800028b9:	48 c1 e0 0c          	shl    $0xc,%rax
ffffffff800028bd:	d3 e7                	shl    %cl,%edi
ffffffff800028bf:	89 f9                	mov    %edi,%ecx
ffffffff800028c1:	09 f1                	or     %esi,%ecx
ffffffff800028c3:	4c 89 0d ae 69 00 00 	mov    %r9,0x69ae(%rip)        # ffffffff80009278 <g_pmm+0x38>
ffffffff800028ca:	48 81 05 83 69 00 00 	addq   $0x1000,0x6983(%rip)        # ffffffff80009258 <g_pmm+0x18>
ffffffff800028d1:	00 10 00 00 
ffffffff800028d5:	88 0a                	mov    %cl,(%rdx)
ffffffff800028d7:	c3                   	ret
ffffffff800028d8:	4c 89 c2             	mov    %r8,%rdx
ffffffff800028db:	b9 01 00 00 00       	mov    $0x1,%ecx
ffffffff800028e0:	31 c0                	xor    %eax,%eax
ffffffff800028e2:	41 b9 01 00 00 00    	mov    $0x1,%r9d
ffffffff800028e8:	eb d7                	jmp    ffffffff800028c1 <pmm_alloc_page+0x101>
ffffffff800028ea:	66 0f 1f 44 00 00    	nopw   0x0(%rax,%rax,1)

ffffffff800028f0 <pmm_free_page>:
ffffffff800028f0:	f3 0f 1e fa          	endbr64
ffffffff800028f4:	41 54                	push   %r12
ffffffff800028f6:	55                   	push   %rbp
ffffffff800028f7:	48 89 fd             	mov    %rdi,%rbp
ffffffff800028fa:	53                   	push   %rbx
ffffffff800028fb:	48 c1 ed 0c          	shr    $0xc,%rbp
ffffffff800028ff:	48 89 fb             	mov    %rdi,%rbx
ffffffff80002902:	f7 c7 ff 0f 00 00    	test   $0xfff,%edi
ffffffff80002908:	75 5e                	jne    ffffffff80002968 <pmm_free_page+0x78>
ffffffff8000290a:	48 3b 2d 4f 69 00 00 	cmp    0x694f(%rip),%rbp        # ffffffff80009260 <g_pmm+0x20>
ffffffff80002911:	73 6a                	jae    ffffffff8000297d <pmm_free_page+0x8d>
ffffffff80002913:	48 8b 15 4e 69 00 00 	mov    0x694e(%rip),%rdx        # ffffffff80009268 <g_pmm+0x28>
ffffffff8000291a:	48 c1 eb 0f          	shr    $0xf,%rbx
ffffffff8000291e:	41 89 ec             	mov    %ebp,%r12d
ffffffff80002921:	41 83 e4 07          	and    $0x7,%r12d
ffffffff80002925:	48 01 da             	add    %rbx,%rdx
ffffffff80002928:	0f b6 02             	movzbl (%rdx),%eax
ffffffff8000292b:	44 0f a3 e0          	bt     %r12d,%eax
ffffffff8000292f:	89 c6                	mov    %eax,%esi
ffffffff80002931:	73 5d                	jae    ffffffff80002990 <pmm_free_page+0xa0>
ffffffff80002933:	b8 01 00 00 00       	mov    $0x1,%eax
ffffffff80002938:	44 89 e1             	mov    %r12d,%ecx
ffffffff8000293b:	48 81 2d 12 69 00 00 	subq   $0x1000,0x6912(%rip)        # ffffffff80009258 <g_pmm+0x18>
ffffffff80002942:	00 10 00 00 
ffffffff80002946:	d3 e0                	shl    %cl,%eax
ffffffff80002948:	f7 d0                	not    %eax
ffffffff8000294a:	21 f0                	and    %esi,%eax
ffffffff8000294c:	48 3b 2d 25 69 00 00 	cmp    0x6925(%rip),%rbp        # ffffffff80009278 <g_pmm+0x38>
ffffffff80002953:	88 02                	mov    %al,(%rdx)
ffffffff80002955:	73 07                	jae    ffffffff8000295e <pmm_free_page+0x6e>
ffffffff80002957:	48 89 2d 1a 69 00 00 	mov    %rbp,0x691a(%rip)        # ffffffff80009278 <g_pmm+0x38>
ffffffff8000295e:	5b                   	pop    %rbx
ffffffff8000295f:	5d                   	pop    %rbp
ffffffff80002960:	41 5c                	pop    %r12
ffffffff80002962:	c3                   	ret
ffffffff80002963:	0f 1f 44 00 00       	nopl   0x0(%rax,%rax,1)
ffffffff80002968:	48 c7 c7 2e 6a 00 80 	mov    $0xffffffff80006a2e,%rdi
ffffffff8000296f:	e8 cc 08 00 00       	call   ffffffff80003240 <panic>
ffffffff80002974:	48 3b 2d e5 68 00 00 	cmp    0x68e5(%rip),%rbp        # ffffffff80009260 <g_pmm+0x20>
ffffffff8000297b:	72 96                	jb     ffffffff80002913 <pmm_free_page+0x23>
ffffffff8000297d:	48 c7 c7 49 6a 00 80 	mov    $0xffffffff80006a49,%rdi
ffffffff80002984:	e8 b7 08 00 00       	call   ffffffff80003240 <panic>
ffffffff80002989:	eb 88                	jmp    ffffffff80002913 <pmm_free_page+0x23>
ffffffff8000298b:	0f 1f 44 00 00       	nopl   0x0(%rax,%rax,1)
ffffffff80002990:	48 c7 c7 e0 70 00 80 	mov    $0xffffffff800070e0,%rdi
ffffffff80002997:	e8 a4 08 00 00       	call   ffffffff80003240 <panic>
ffffffff8000299c:	48 03 1d c5 68 00 00 	add    0x68c5(%rip),%rbx        # ffffffff80009268 <g_pmm+0x28>
ffffffff800029a3:	0f b6 33             	movzbl (%rbx),%esi
ffffffff800029a6:	48 89 da             	mov    %rbx,%rdx
ffffffff800029a9:	eb 88                	jmp    ffffffff80002933 <pmm_free_page+0x43>
ffffffff800029ab:	0f 1f 44 00 00       	nopl   0x0(%rax,%rax,1)

ffffffff800029b0 <pmm_alloc_pages>:
ffffffff800029b0:	f3 0f 1e fa          	endbr64
ffffffff800029b4:	4c 8b 1d bd 68 00 00 	mov    0x68bd(%rip),%r11        # ffffffff80009278 <g_pmm+0x38>
ffffffff800029bb:	4c 8b 15 9e 68 00 00 	mov    0x689e(%rip),%r10        # ffffffff80009260 <g_pmm+0x20>
ffffffff800029c2:	53                   	push   %rbx
ffffffff800029c3:	41 89 f9             	mov    %edi,%r9d
ffffffff800029c6:	4d 39 d3             	cmp    %r10,%r11
ffffffff800029c9:	0f 83 51 01 00 00    	jae    ffffffff80002b20 <pmm_alloc_pages+0x170>
ffffffff800029cf:	4c 8b 05 92 68 00 00 	mov    0x6892(%rip),%r8        # ffffffff80009268 <g_pmm+0x28>
ffffffff800029d6:	4c 89 da             	mov    %r11,%rdx
ffffffff800029d9:	31 c0                	xor    %eax,%eax
ffffffff800029db:	31 f6                	xor    %esi,%esi
ffffffff800029dd:	eb 1c                	jmp    ffffffff800029fb <pmm_alloc_pages+0x4b>
ffffffff800029df:	90                   	nop
ffffffff800029e0:	85 f6                	test   %esi,%esi
ffffffff800029e2:	48 0f 44 c2          	cmove  %rdx,%rax
ffffffff800029e6:	83 c6 01             	add    $0x1,%esi
ffffffff800029e9:	41 39 f1             	cmp    %esi,%r9d
ffffffff800029ec:	0f 84 8e 00 00 00    	je     ffffffff80002a80 <pmm_alloc_pages+0xd0>
ffffffff800029f2:	48 83 c2 01          	add    $0x1,%rdx
ffffffff800029f6:	4c 39 d2             	cmp    %r10,%rdx
ffffffff800029f9:	74 21                	je     ffffffff80002a1c <pmm_alloc_pages+0x6c>
ffffffff800029fb:	48 89 d1             	mov    %rdx,%rcx
ffffffff800029fe:	48 c1 e9 03          	shr    $0x3,%rcx
ffffffff80002a02:	41 0f b6 3c 08       	movzbl (%r8,%rcx,1),%edi
ffffffff80002a07:	89 d1                	mov    %edx,%ecx
ffffffff80002a09:	83 e1 07             	and    $0x7,%ecx
ffffffff80002a0c:	0f a3 cf             	bt     %ecx,%edi
ffffffff80002a0f:	73 cf                	jae    ffffffff800029e0 <pmm_alloc_pages+0x30>
ffffffff80002a11:	48 83 c2 01          	add    $0x1,%rdx
ffffffff80002a15:	31 f6                	xor    %esi,%esi
ffffffff80002a17:	4c 39 d2             	cmp    %r10,%rdx
ffffffff80002a1a:	75 df                	jne    ffffffff800029fb <pmm_alloc_pages+0x4b>
ffffffff80002a1c:	4d 85 db             	test   %r11,%r11
ffffffff80002a1f:	74 4b                	je     ffffffff80002a6c <pmm_alloc_pages+0xbc>
ffffffff80002a21:	4c 8b 05 40 68 00 00 	mov    0x6840(%rip),%r8        # ffffffff80009268 <g_pmm+0x28>
ffffffff80002a28:	31 d2                	xor    %edx,%edx
ffffffff80002a2a:	31 c9                	xor    %ecx,%ecx
ffffffff80002a2c:	eb 1d                	jmp    ffffffff80002a4b <pmm_alloc_pages+0x9b>
ffffffff80002a2e:	66 90                	xchg   %ax,%ax
ffffffff80002a30:	85 c9                	test   %ecx,%ecx
ffffffff80002a32:	48 0f 44 c2          	cmove  %rdx,%rax
ffffffff80002a36:	83 c1 01             	add    $0x1,%ecx
ffffffff80002a39:	44 39 c9             	cmp    %r9d,%ecx
ffffffff80002a3c:	0f 84 8e 00 00 00    	je     ffffffff80002ad0 <pmm_alloc_pages+0x120>
ffffffff80002a42:	48 83 c2 01          	add    $0x1,%rdx
ffffffff80002a46:	49 39 d3             	cmp    %rdx,%r11
ffffffff80002a49:	74 21                	je     ffffffff80002a6c <pmm_alloc_pages+0xbc>
ffffffff80002a4b:	48 89 d6             	mov    %rdx,%rsi
ffffffff80002a4e:	48 c1 ee 03          	shr    $0x3,%rsi
ffffffff80002a52:	41 0f b6 3c 30       	movzbl (%r8,%rsi,1),%edi
ffffffff80002a57:	89 d6                	mov    %edx,%esi
ffffffff80002a59:	83 e6 07             	and    $0x7,%esi
ffffffff80002a5c:	0f a3 f7             	bt     %esi,%edi
ffffffff80002a5f:	73 cf                	jae    ffffffff80002a30 <pmm_alloc_pages+0x80>
ffffffff80002a61:	48 83 c2 01          	add    $0x1,%rdx
ffffffff80002a65:	31 c9                	xor    %ecx,%ecx
ffffffff80002a67:	49 39 d3             	cmp    %rdx,%r11
ffffffff80002a6a:	75 df                	jne    ffffffff80002a4b <pmm_alloc_pages+0x9b>
ffffffff80002a6c:	48 c7 c7 1f 6a 00 80 	mov    $0xffffffff80006a1f,%rdi
ffffffff80002a73:	e8 c8 07 00 00       	call   ffffffff80003240 <panic>
ffffffff80002a78:	31 c0                	xor    %eax,%eax
ffffffff80002a7a:	5b                   	pop    %rbx
ffffffff80002a7b:	c3                   	ret
ffffffff80002a7c:	0f 1f 40 00          	nopl   0x0(%rax)
ffffffff80002a80:	41 89 f3             	mov    %esi,%r11d
ffffffff80002a83:	85 f6                	test   %esi,%esi
ffffffff80002a85:	74 2f                	je     ffffffff80002ab6 <pmm_alloc_pages+0x106>
ffffffff80002a87:	4d 8d 14 03          	lea    (%r11,%rax,1),%r10
ffffffff80002a8b:	48 89 c2             	mov    %rax,%rdx
ffffffff80002a8e:	41 b9 01 00 00 00    	mov    $0x1,%r9d
ffffffff80002a94:	0f 1f 40 00          	nopl   0x0(%rax)
ffffffff80002a98:	48 89 d7             	mov    %rdx,%rdi
ffffffff80002a9b:	89 d1                	mov    %edx,%ecx
ffffffff80002a9d:	44 89 cb             	mov    %r9d,%ebx
ffffffff80002aa0:	48 83 c2 01          	add    $0x1,%rdx
ffffffff80002aa4:	48 c1 ef 03          	shr    $0x3,%rdi
ffffffff80002aa8:	83 e1 07             	and    $0x7,%ecx
ffffffff80002aab:	d3 e3                	shl    %cl,%ebx
ffffffff80002aad:	41 08 1c 38          	or     %bl,(%r8,%rdi,1)
ffffffff80002ab1:	4c 39 d2             	cmp    %r10,%rdx
ffffffff80002ab4:	75 e2                	jne    ffffffff80002a98 <pmm_alloc_pages+0xe8>
ffffffff80002ab6:	49 01 c3             	add    %rax,%r11
ffffffff80002ab9:	c1 e6 0c             	shl    $0xc,%esi
ffffffff80002abc:	5b                   	pop    %rbx
ffffffff80002abd:	48 01 35 94 67 00 00 	add    %rsi,0x6794(%rip)        # ffffffff80009258 <g_pmm+0x18>
ffffffff80002ac4:	48 c1 e0 0c          	shl    $0xc,%rax
ffffffff80002ac8:	4c 89 1d a9 67 00 00 	mov    %r11,0x67a9(%rip)        # ffffffff80009278 <g_pmm+0x38>
ffffffff80002acf:	c3                   	ret
ffffffff80002ad0:	45 89 cb             	mov    %r9d,%r11d
ffffffff80002ad3:	45 85 c9             	test   %r9d,%r9d
ffffffff80002ad6:	74 2d                	je     ffffffff80002b05 <pmm_alloc_pages+0x155>
ffffffff80002ad8:	4d 8d 14 03          	lea    (%r11,%rax,1),%r10
ffffffff80002adc:	48 89 c2             	mov    %rax,%rdx
ffffffff80002adf:	bf 01 00 00 00       	mov    $0x1,%edi
ffffffff80002ae4:	0f 1f 40 00          	nopl   0x0(%rax)
ffffffff80002ae8:	48 89 d6             	mov    %rdx,%rsi
ffffffff80002aeb:	89 d1                	mov    %edx,%ecx
ffffffff80002aed:	89 fb                	mov    %edi,%ebx
ffffffff80002aef:	48 83 c2 01          	add    $0x1,%rdx
ffffffff80002af3:	48 c1 ee 03          	shr    $0x3,%rsi
ffffffff80002af7:	83 e1 07             	and    $0x7,%ecx
ffffffff80002afa:	d3 e3                	shl    %cl,%ebx
ffffffff80002afc:	41 08 1c 30          	or     %bl,(%r8,%rsi,1)
ffffffff80002b00:	4c 39 d2             	cmp    %r10,%rdx
ffffffff80002b03:	75 e3                	jne    ffffffff80002ae8 <pmm_alloc_pages+0x138>
ffffffff80002b05:	49 01 c3             	add    %rax,%r11
ffffffff80002b08:	41 c1 e1 0c          	shl    $0xc,%r9d
ffffffff80002b0c:	5b                   	pop    %rbx
ffffffff80002b0d:	4c 01 0d 44 67 00 00 	add    %r9,0x6744(%rip)        # ffffffff80009258 <g_pmm+0x18>
ffffffff80002b14:	48 c1 e0 0c          	shl    $0xc,%rax
ffffffff80002b18:	4c 89 1d 59 67 00 00 	mov    %r11,0x6759(%rip)        # ffffffff80009278 <g_pmm+0x38>
ffffffff80002b1f:	c3                   	ret
ffffffff80002b20:	31 c0                	xor    %eax,%eax
ffffffff80002b22:	e9 f5 fe ff ff       	jmp    ffffffff80002a1c <pmm_alloc_pages+0x6c>
ffffffff80002b27:	66 0f 1f 84 00 00 00 	nopw   0x0(%rax,%rax,1)
ffffffff80002b2e:	00 00 

ffffffff80002b30 <pmm_free_pages>:
ffffffff80002b30:	f3 0f 1e fa          	endbr64
ffffffff80002b34:	48 c7 c7 08 71 00 80 	mov    $0xffffffff80007108,%rdi
ffffffff80002b3b:	e9 00 07 00 00       	jmp    ffffffff80003240 <panic>

ffffffff80002b40 <pmm_get_max_address>:
ffffffff80002b40:	f3 0f 1e fa          	endbr64
ffffffff80002b44:	48 8b 05 35 67 00 00 	mov    0x6735(%rip),%rax        # ffffffff80009280 <g_pmm+0x40>
ffffffff80002b4b:	c3                   	ret
ffffffff80002b4c:	0f 1f 40 00          	nopl   0x0(%rax)

ffffffff80002b50 <gfx_init>:
ffffffff80002b50:	f3 0f 1e fa          	endbr64
ffffffff80002b54:	c1 e9 02             	shr    $0x2,%ecx
ffffffff80002b57:	48 89 3d 3a 67 00 00 	mov    %rdi,0x673a(%rip)        # ffffffff80009298 <fb>
ffffffff80002b5e:	89 35 2c 67 00 00    	mov    %esi,0x672c(%rip)        # ffffffff80009290 <fb_width>
ffffffff80002b64:	89 15 22 67 00 00    	mov    %edx,0x6722(%rip)        # ffffffff8000928c <fb_height>
ffffffff80002b6a:	89 0d 18 67 00 00    	mov    %ecx,0x6718(%rip)        # ffffffff80009288 <fb_pitch_pixels>
ffffffff80002b70:	c3                   	ret
ffffffff80002b71:	66 66 2e 0f 1f 84 00 	data16 cs nopw 0x0(%rax,%rax,1)
ffffffff80002b78:	00 00 00 00 
ffffffff80002b7c:	0f 1f 40 00          	nopl   0x0(%rax)

ffffffff80002b80 <gfx_clear>:
ffffffff80002b80:	f3 0f 1e fa          	endbr64
ffffffff80002b84:	44 8b 1d 01 67 00 00 	mov    0x6701(%rip),%r11d        # ffffffff8000928c <fb_height>
ffffffff80002b8b:	45 85 db             	test   %r11d,%r11d
ffffffff80002b8e:	74 50                	je     ffffffff80002be0 <gfx_clear+0x60>
ffffffff80002b90:	53                   	push   %rbx
ffffffff80002b91:	8b 1d f9 66 00 00    	mov    0x66f9(%rip),%ebx        # ffffffff80009290 <fb_width>
ffffffff80002b97:	45 31 c9             	xor    %r9d,%r9d
ffffffff80002b9a:	45 31 c0             	xor    %r8d,%r8d
ffffffff80002b9d:	48 8b 35 f4 66 00 00 	mov    0x66f4(%rip),%rsi        # ffffffff80009298 <fb>
ffffffff80002ba4:	44 8b 15 dd 66 00 00 	mov    0x66dd(%rip),%r10d        # ffffffff80009288 <fb_pitch_pixels>
ffffffff80002bab:	89 d9                	mov    %ebx,%ecx
ffffffff80002bad:	0f 1f 00             	nopl   (%rax)
ffffffff80002bb0:	44 89 c8             	mov    %r9d,%eax
ffffffff80002bb3:	85 db                	test   %ebx,%ebx
ffffffff80002bb5:	74 18                	je     ffffffff80002bcf <gfx_clear+0x4f>
ffffffff80002bb7:	66 0f 1f 84 00 00 00 	nopw   0x0(%rax,%rax,1)
ffffffff80002bbe:	00 00 
ffffffff80002bc0:	89 c2                	mov    %eax,%edx
ffffffff80002bc2:	83 c0 01             	add    $0x1,%eax
ffffffff80002bc5:	48 8d 14 96          	lea    (%rsi,%rdx,4),%rdx
ffffffff80002bc9:	89 3a                	mov    %edi,(%rdx)
ffffffff80002bcb:	39 c8                	cmp    %ecx,%eax
ffffffff80002bcd:	75 f1                	jne    ffffffff80002bc0 <gfx_clear+0x40>
ffffffff80002bcf:	41 83 c0 01          	add    $0x1,%r8d
ffffffff80002bd3:	45 01 d1             	add    %r10d,%r9d
ffffffff80002bd6:	44 01 d1             	add    %r10d,%ecx
ffffffff80002bd9:	45 39 d8             	cmp    %r11d,%r8d
ffffffff80002bdc:	75 d2                	jne    ffffffff80002bb0 <gfx_clear+0x30>
ffffffff80002bde:	5b                   	pop    %rbx
ffffffff80002bdf:	c3                   	ret
ffffffff80002be0:	c3                   	ret
ffffffff80002be1:	66 66 2e 0f 1f 84 00 	data16 cs nopw 0x0(%rax,%rax,1)
ffffffff80002be8:	00 00 00 00 
ffffffff80002bec:	0f 1f 40 00          	nopl   0x0(%rax)

ffffffff80002bf0 <gfx_pixel>:
ffffffff80002bf0:	f3 0f 1e fa          	endbr64
ffffffff80002bf4:	0f af 35 8d 66 00 00 	imul   0x668d(%rip),%esi        # ffffffff80009288 <fb_pitch_pixels>
ffffffff80002bfb:	48 8b 05 96 66 00 00 	mov    0x6696(%rip),%rax        # ffffffff80009298 <fb>
ffffffff80002c02:	8d 0c 3e             	lea    (%rsi,%rdi,1),%ecx
ffffffff80002c05:	48 8d 04 88          	lea    (%rax,%rcx,4),%rax
ffffffff80002c09:	89 10                	mov    %edx,(%rax)
ffffffff80002c0b:	c3                   	ret
ffffffff80002c0c:	0f 1f 40 00          	nopl   0x0(%rax)

ffffffff80002c10 <gfx_rect>:
ffffffff80002c10:	f3 0f 1e fa          	endbr64
ffffffff80002c14:	44 8d 0c 0e          	lea    (%rsi,%rcx,1),%r9d
ffffffff80002c18:	44 39 ce             	cmp    %r9d,%esi
ffffffff80002c1b:	73 50                	jae    ffffffff80002c6d <gfx_rect+0x5d>
ffffffff80002c1d:	55                   	push   %rbp
ffffffff80002c1e:	41 89 fa             	mov    %edi,%r10d
ffffffff80002c21:	8b 2d 61 66 00 00    	mov    0x6661(%rip),%ebp        # ffffffff80009288 <fb_pitch_pixels>
ffffffff80002c27:	89 f7                	mov    %esi,%edi
ffffffff80002c29:	89 f9                	mov    %edi,%ecx
ffffffff80002c2b:	53                   	push   %rbx
ffffffff80002c2c:	48 8b 35 65 66 00 00 	mov    0x6665(%rip),%rsi        # ffffffff80009298 <fb>
ffffffff80002c33:	41 8d 1c 12          	lea    (%r10,%rdx,1),%ebx
ffffffff80002c37:	0f af cd             	imul   %ebp,%ecx
ffffffff80002c3a:	41 89 d3             	mov    %edx,%r11d
ffffffff80002c3d:	01 d9                	add    %ebx,%ecx
ffffffff80002c3f:	90                   	nop
ffffffff80002c40:	89 c8                	mov    %ecx,%eax
ffffffff80002c42:	44 29 d8             	sub    %r11d,%eax
ffffffff80002c45:	41 39 da             	cmp    %ebx,%r10d
ffffffff80002c48:	73 16                	jae    ffffffff80002c60 <gfx_rect+0x50>
ffffffff80002c4a:	66 0f 1f 44 00 00    	nopw   0x0(%rax,%rax,1)
ffffffff80002c50:	89 c2                	mov    %eax,%edx
ffffffff80002c52:	83 c0 01             	add    $0x1,%eax
ffffffff80002c55:	48 8d 14 96          	lea    (%rsi,%rdx,4),%rdx
ffffffff80002c59:	44 89 02             	mov    %r8d,(%rdx)
ffffffff80002c5c:	39 c1                	cmp    %eax,%ecx
ffffffff80002c5e:	75 f0                	jne    ffffffff80002c50 <gfx_rect+0x40>
ffffffff80002c60:	83 c7 01             	add    $0x1,%edi
ffffffff80002c63:	01 e9                	add    %ebp,%ecx
ffffffff80002c65:	44 39 cf             	cmp    %r9d,%edi
ffffffff80002c68:	75 d6                	jne    ffffffff80002c40 <gfx_rect+0x30>
ffffffff80002c6a:	5b                   	pop    %rbx
ffffffff80002c6b:	5d                   	pop    %rbp
ffffffff80002c6c:	c3                   	ret
ffffffff80002c6d:	c3                   	ret
ffffffff80002c6e:	66 90                	xchg   %ax,%ax

ffffffff80002c70 <console_set_fg_color>:
ffffffff80002c70:	f3 0f 1e fa          	endbr64
ffffffff80002c74:	89 3d 8e 53 00 00    	mov    %edi,0x538e(%rip)        # ffffffff80008008 <fg>
ffffffff80002c7a:	c3                   	ret
ffffffff80002c7b:	0f 1f 44 00 00       	nopl   0x0(%rax,%rax,1)

ffffffff80002c80 <console_set_bg_color>:
ffffffff80002c80:	f3 0f 1e fa          	endbr64
ffffffff80002c84:	89 3d 16 66 00 00    	mov    %edi,0x6616(%rip)        # ffffffff800092a0 <bg>
ffffffff80002c8a:	c3                   	ret
ffffffff80002c8b:	0f 1f 44 00 00       	nopl   0x0(%rax,%rax,1)

ffffffff80002c90 <console_init>:
ffffffff80002c90:	f3 0f 1e fa          	endbr64
ffffffff80002c94:	c1 e9 02             	shr    $0x2,%ecx
ffffffff80002c97:	48 89 3d 1a 66 00 00 	mov    %rdi,0x661a(%rip)        # ffffffff800092b8 <fb>
ffffffff80002c9e:	89 35 10 66 00 00    	mov    %esi,0x6610(%rip)        # ffffffff800092b4 <fb_width>
ffffffff80002ca4:	89 15 06 66 00 00    	mov    %edx,0x6606(%rip)        # ffffffff800092b0 <fb_height>
ffffffff80002caa:	89 0d fc 65 00 00    	mov    %ecx,0x65fc(%rip)        # ffffffff800092ac <fb_pitch_pixels>
ffffffff80002cb0:	c7 05 ee 65 00 00 00 	movl   $0x0,0x65ee(%rip)        # ffffffff800092a8 <cursor_x>
ffffffff80002cb7:	00 00 00 
ffffffff80002cba:	c7 05 e0 65 00 00 00 	movl   $0x0,0x65e0(%rip)        # ffffffff800092a4 <cursor_y>
ffffffff80002cc1:	00 00 00 
ffffffff80002cc4:	c3                   	ret
ffffffff80002cc5:	66 66 2e 0f 1f 84 00 	data16 cs nopw 0x0(%rax,%rax,1)
ffffffff80002ccc:	00 00 00 00 

ffffffff80002cd0 <console_clear>:
ffffffff80002cd0:	f3 0f 1e fa          	endbr64
ffffffff80002cd4:	44 8b 1d d5 65 00 00 	mov    0x65d5(%rip),%r11d        # ffffffff800092b0 <fb_height>
ffffffff80002cdb:	53                   	push   %rbx
ffffffff80002cdc:	89 3d be 65 00 00    	mov    %edi,0x65be(%rip)        # ffffffff800092a0 <bg>
ffffffff80002ce2:	45 85 db             	test   %r11d,%r11d
ffffffff80002ce5:	74 47                	je     ffffffff80002d2e <console_clear+0x5e>
ffffffff80002ce7:	8b 1d c7 65 00 00    	mov    0x65c7(%rip),%ebx        # ffffffff800092b4 <fb_width>
ffffffff80002ced:	48 8b 35 c4 65 00 00 	mov    0x65c4(%rip),%rsi        # ffffffff800092b8 <fb>
ffffffff80002cf4:	45 31 c9             	xor    %r9d,%r9d
ffffffff80002cf7:	45 31 c0             	xor    %r8d,%r8d
ffffffff80002cfa:	44 8b 15 ab 65 00 00 	mov    0x65ab(%rip),%r10d        # ffffffff800092ac <fb_pitch_pixels>
ffffffff80002d01:	89 d9                	mov    %ebx,%ecx
ffffffff80002d03:	0f 1f 44 00 00       	nopl   0x0(%rax,%rax,1)
ffffffff80002d08:	44 89 c8             	mov    %r9d,%eax
ffffffff80002d0b:	85 db                	test   %ebx,%ebx
ffffffff80002d0d:	74 10                	je     ffffffff80002d1f <console_clear+0x4f>
ffffffff80002d0f:	90                   	nop
ffffffff80002d10:	89 c2                	mov    %eax,%edx
ffffffff80002d12:	83 c0 01             	add    $0x1,%eax
ffffffff80002d15:	48 8d 14 96          	lea    (%rsi,%rdx,4),%rdx
ffffffff80002d19:	89 3a                	mov    %edi,(%rdx)
ffffffff80002d1b:	39 c8                	cmp    %ecx,%eax
ffffffff80002d1d:	75 f1                	jne    ffffffff80002d10 <console_clear+0x40>
ffffffff80002d1f:	41 83 c0 01          	add    $0x1,%r8d
ffffffff80002d23:	45 01 d1             	add    %r10d,%r9d
ffffffff80002d26:	44 01 d1             	add    %r10d,%ecx
ffffffff80002d29:	45 39 d8             	cmp    %r11d,%r8d
ffffffff80002d2c:	75 da                	jne    ffffffff80002d08 <console_clear+0x38>
ffffffff80002d2e:	c7 05 70 65 00 00 00 	movl   $0x0,0x6570(%rip)        # ffffffff800092a8 <cursor_x>
ffffffff80002d35:	00 00 00 
ffffffff80002d38:	5b                   	pop    %rbx
ffffffff80002d39:	c7 05 61 65 00 00 00 	movl   $0x0,0x6561(%rip)        # ffffffff800092a4 <cursor_y>
ffffffff80002d40:	00 00 00 
ffffffff80002d43:	c3                   	ret
ffffffff80002d44:	66 66 2e 0f 1f 84 00 	data16 cs nopw 0x0(%rax,%rax,1)
ffffffff80002d4b:	00 00 00 00 
ffffffff80002d4f:	90                   	nop

ffffffff80002d50 <console_putc>:
ffffffff80002d50:	f3 0f 1e fa          	endbr64
ffffffff80002d54:	41 56                	push   %r14
ffffffff80002d56:	41 55                	push   %r13
ffffffff80002d58:	41 54                	push   %r12
ffffffff80002d5a:	55                   	push   %rbp
ffffffff80002d5b:	53                   	push   %rbx
ffffffff80002d5c:	89 fb                	mov    %edi,%ebx
ffffffff80002d5e:	40 0f be ff          	movsbl %dil,%edi
ffffffff80002d62:	e8 c9 2a 00 00       	call   ffffffff80005830 <serial_write_char>
ffffffff80002d67:	80 fb 0a             	cmp    $0xa,%bl
ffffffff80002d6a:	0f 84 d8 00 00 00    	je     ffffffff80002e48 <console_putc+0xf8>
ffffffff80002d70:	83 eb 20             	sub    $0x20,%ebx
ffffffff80002d73:	ba f0 01 00 00       	mov    $0x1f0,%edx
ffffffff80002d78:	8b 2d 2a 65 00 00    	mov    0x652a(%rip),%ebp        # ffffffff800092a8 <cursor_x>
ffffffff80002d7e:	44 8b 25 1f 65 00 00 	mov    0x651f(%rip),%r12d        # ffffffff800092a4 <cursor_y>
ffffffff80002d85:	0f b6 c3             	movzbl %bl,%eax
ffffffff80002d88:	44 8b 1d 11 65 00 00 	mov    0x6511(%rip),%r11d        # ffffffff800092a0 <bg>
ffffffff80002d8f:	44 8b 15 72 52 00 00 	mov    0x5272(%rip),%r10d        # ffffffff80008008 <fg>
ffffffff80002d96:	48 c1 e0 04          	shl    $0x4,%rax
ffffffff80002d9a:	44 8d 4d 07          	lea    0x7(%rbp),%r9d
ffffffff80002d9e:	44 8d 45 08          	lea    0x8(%rbp),%r8d
ffffffff80002da2:	80 fb 5f             	cmp    $0x5f,%bl
ffffffff80002da5:	48 0f 43 c2          	cmovae %rdx,%rax
ffffffff80002da9:	8b 3d 05 65 00 00    	mov    0x6505(%rip),%edi        # ffffffff800092b4 <fb_width>
ffffffff80002daf:	44 89 e3             	mov    %r12d,%ebx
ffffffff80002db2:	48 8d b0 80 60 00 80 	lea    -0x7fff9f80(%rax),%rsi
ffffffff80002db9:	4c 8d a8 90 60 00 80 	lea    -0x7fff9f70(%rax),%r13
ffffffff80002dc0:	89 e8                	mov    %ebp,%eax
ffffffff80002dc2:	66 0f 1f 44 00 00    	nopw   0x0(%rax,%rax,1)
ffffffff80002dc8:	0f b6 0e             	movzbl (%rsi),%ecx
ffffffff80002dcb:	44 89 ca             	mov    %r9d,%edx
ffffffff80002dce:	29 c2                	sub    %eax,%edx
ffffffff80002dd0:	0f a3 d1             	bt     %edx,%ecx
ffffffff80002dd3:	44 89 da             	mov    %r11d,%edx
ffffffff80002dd6:	41 0f 42 d2          	cmovb  %r10d,%edx
ffffffff80002dda:	39 f8                	cmp    %edi,%eax
ffffffff80002ddc:	73 22                	jae    ffffffff80002e00 <console_putc+0xb0>
ffffffff80002dde:	3b 1d cc 64 00 00    	cmp    0x64cc(%rip),%ebx        # ffffffff800092b0 <fb_height>
ffffffff80002de4:	73 1a                	jae    ffffffff80002e00 <console_putc+0xb0>
ffffffff80002de6:	8b 0d c0 64 00 00    	mov    0x64c0(%rip),%ecx        # ffffffff800092ac <fb_pitch_pixels>
ffffffff80002dec:	0f af cb             	imul   %ebx,%ecx
ffffffff80002def:	44 8d 34 01          	lea    (%rcx,%rax,1),%r14d
ffffffff80002df3:	48 8b 0d be 64 00 00 	mov    0x64be(%rip),%rcx        # ffffffff800092b8 <fb>
ffffffff80002dfa:	4a 8d 0c b1          	lea    (%rcx,%r14,4),%rcx
ffffffff80002dfe:	89 11                	mov    %edx,(%rcx)
ffffffff80002e00:	83 c0 01             	add    $0x1,%eax
ffffffff80002e03:	44 39 c0             	cmp    %r8d,%eax
ffffffff80002e06:	75 c0                	jne    ffffffff80002dc8 <console_putc+0x78>
ffffffff80002e08:	48 83 c6 01          	add    $0x1,%rsi
ffffffff80002e0c:	83 c3 01             	add    $0x1,%ebx
ffffffff80002e0f:	49 39 f5             	cmp    %rsi,%r13
ffffffff80002e12:	75 ac                	jne    ffffffff80002dc0 <console_putc+0x70>
ffffffff80002e14:	83 c5 10             	add    $0x10,%ebp
ffffffff80002e17:	39 ef                	cmp    %ebp,%edi
ffffffff80002e19:	72 0f                	jb     ffffffff80002e2a <console_putc+0xda>
ffffffff80002e1b:	5b                   	pop    %rbx
ffffffff80002e1c:	5d                   	pop    %rbp
ffffffff80002e1d:	89 05 85 64 00 00    	mov    %eax,0x6485(%rip)        # ffffffff800092a8 <cursor_x>
ffffffff80002e23:	41 5c                	pop    %r12
ffffffff80002e25:	41 5d                	pop    %r13
ffffffff80002e27:	41 5e                	pop    %r14
ffffffff80002e29:	c3                   	ret
ffffffff80002e2a:	c7 05 74 64 00 00 00 	movl   $0x0,0x6474(%rip)        # ffffffff800092a8 <cursor_x>
ffffffff80002e31:	00 00 00 
ffffffff80002e34:	41 83 c4 10          	add    $0x10,%r12d
ffffffff80002e38:	5b                   	pop    %rbx
ffffffff80002e39:	44 89 25 64 64 00 00 	mov    %r12d,0x6464(%rip)        # ffffffff800092a4 <cursor_y>
ffffffff80002e40:	5d                   	pop    %rbp
ffffffff80002e41:	41 5c                	pop    %r12
ffffffff80002e43:	41 5d                	pop    %r13
ffffffff80002e45:	41 5e                	pop    %r14
ffffffff80002e47:	c3                   	ret
ffffffff80002e48:	5b                   	pop    %rbx
ffffffff80002e49:	5d                   	pop    %rbp
ffffffff80002e4a:	c7 05 54 64 00 00 00 	movl   $0x0,0x6454(%rip)        # ffffffff800092a8 <cursor_x>
ffffffff80002e51:	00 00 00 
ffffffff80002e54:	41 5c                	pop    %r12
ffffffff80002e56:	83 05 47 64 00 00 10 	addl   $0x10,0x6447(%rip)        # ffffffff800092a4 <cursor_y>
ffffffff80002e5d:	41 5d                	pop    %r13
ffffffff80002e5f:	41 5e                	pop    %r14
ffffffff80002e61:	c3                   	ret
ffffffff80002e62:	66 66 2e 0f 1f 84 00 	data16 cs nopw 0x0(%rax,%rax,1)
ffffffff80002e69:	00 00 00 00 
ffffffff80002e6d:	0f 1f 00             	nopl   (%rax)

ffffffff80002e70 <console_write>:
ffffffff80002e70:	f3 0f 1e fa          	endbr64
ffffffff80002e74:	53                   	push   %rbx
ffffffff80002e75:	48 89 fb             	mov    %rdi,%rbx
ffffffff80002e78:	0f be 3f             	movsbl (%rdi),%edi
ffffffff80002e7b:	40 84 ff             	test   %dil,%dil
ffffffff80002e7e:	74 12                	je     ffffffff80002e92 <console_write+0x22>
ffffffff80002e80:	e8 cb fe ff ff       	call   ffffffff80002d50 <console_putc>
ffffffff80002e85:	0f be 7b 01          	movsbl 0x1(%rbx),%edi
ffffffff80002e89:	48 83 c3 01          	add    $0x1,%rbx
ffffffff80002e8d:	40 84 ff             	test   %dil,%dil
ffffffff80002e90:	75 ee                	jne    ffffffff80002e80 <console_write+0x10>
ffffffff80002e92:	5b                   	pop    %rbx
ffffffff80002e93:	c3                   	ret
ffffffff80002e94:	66 66 2e 0f 1f 84 00 	data16 cs nopw 0x0(%rax,%rax,1)
ffffffff80002e9b:	00 00 00 00 
ffffffff80002e9f:	90                   	nop

ffffffff80002ea0 <console_write_line>:
ffffffff80002ea0:	f3 0f 1e fa          	endbr64
ffffffff80002ea4:	53                   	push   %rbx
ffffffff80002ea5:	48 89 fb             	mov    %rdi,%rbx
ffffffff80002ea8:	0f be 3f             	movsbl (%rdi),%edi
ffffffff80002eab:	40 84 ff             	test   %dil,%dil
ffffffff80002eae:	74 12                	je     ffffffff80002ec2 <console_write_line+0x22>
ffffffff80002eb0:	e8 9b fe ff ff       	call   ffffffff80002d50 <console_putc>
ffffffff80002eb5:	0f be 7b 01          	movsbl 0x1(%rbx),%edi
ffffffff80002eb9:	48 83 c3 01          	add    $0x1,%rbx
ffffffff80002ebd:	40 84 ff             	test   %dil,%dil
ffffffff80002ec0:	75 ee                	jne    ffffffff80002eb0 <console_write_line+0x10>
ffffffff80002ec2:	bf 0a 00 00 00       	mov    $0xa,%edi
ffffffff80002ec7:	5b                   	pop    %rbx
ffffffff80002ec8:	e9 83 fe ff ff       	jmp    ffffffff80002d50 <console_putc>
ffffffff80002ecd:	0f 1f 00             	nopl   (%rax)

ffffffff80002ed0 <console_write_hex64>:
ffffffff80002ed0:	f3 0f 1e fa          	endbr64
ffffffff80002ed4:	55                   	push   %rbp
ffffffff80002ed5:	48 89 fd             	mov    %rdi,%rbp
ffffffff80002ed8:	bf 30 00 00 00       	mov    $0x30,%edi
ffffffff80002edd:	53                   	push   %rbx
ffffffff80002ede:	48 c7 c3 55 69 00 80 	mov    $0xffffffff80006955,%rbx
ffffffff80002ee5:	48 83 ec 08          	sub    $0x8,%rsp
ffffffff80002ee9:	0f 1f 80 00 00 00 00 	nopl   0x0(%rax)
ffffffff80002ef0:	e8 5b fe ff ff       	call   ffffffff80002d50 <console_putc>
ffffffff80002ef5:	0f be 7b 01          	movsbl 0x1(%rbx),%edi
ffffffff80002ef9:	48 83 c3 01          	add    $0x1,%rbx
ffffffff80002efd:	40 84 ff             	test   %dil,%dil
ffffffff80002f00:	75 ee                	jne    ffffffff80002ef0 <console_write_hex64+0x20>
ffffffff80002f02:	bb 3c 00 00 00       	mov    $0x3c,%ebx
ffffffff80002f07:	66 0f 1f 84 00 00 00 	nopw   0x0(%rax,%rax,1)
ffffffff80002f0e:	00 00 
ffffffff80002f10:	89 d9                	mov    %ebx,%ecx
ffffffff80002f12:	48 89 e8             	mov    %rbp,%rax
ffffffff80002f15:	83 eb 04             	sub    $0x4,%ebx
ffffffff80002f18:	48 d3 e8             	shr    %cl,%rax
ffffffff80002f1b:	83 e0 0f             	and    $0xf,%eax
ffffffff80002f1e:	0f be b8 5f 6a 00 80 	movsbl -0x7fff95a1(%rax),%edi
ffffffff80002f25:	e8 26 fe ff ff       	call   ffffffff80002d50 <console_putc>
ffffffff80002f2a:	83 fb fc             	cmp    $0xfffffffc,%ebx
ffffffff80002f2d:	75 e1                	jne    ffffffff80002f10 <console_write_hex64+0x40>
ffffffff80002f2f:	48 83 c4 08          	add    $0x8,%rsp
ffffffff80002f33:	5b                   	pop    %rbx
ffffffff80002f34:	5d                   	pop    %rbp
ffffffff80002f35:	c3                   	ret
ffffffff80002f36:	66 2e 0f 1f 84 00 00 	cs nopw 0x0(%rax,%rax,1)
ffffffff80002f3d:	00 00 00 

ffffffff80002f40 <console_write_u32>:
ffffffff80002f40:	f3 0f 1e fa          	endbr64
ffffffff80002f44:	85 ff                	test   %edi,%edi
ffffffff80002f46:	74 78                	je     ffffffff80002fc0 <console_write_u32+0x80>
ffffffff80002f48:	55                   	push   %rbp
ffffffff80002f49:	31 d2                	xor    %edx,%edx
ffffffff80002f4b:	41 b8 cd cc cc cc    	mov    $0xcccccccd,%r8d
ffffffff80002f51:	53                   	push   %rbx
ffffffff80002f52:	48 83 ec 18          	sub    $0x18,%rsp
ffffffff80002f56:	66 2e 0f 1f 84 00 00 	cs nopw 0x0(%rax,%rax,1)
ffffffff80002f5d:	00 00 00 
ffffffff80002f60:	89 f8                	mov    %edi,%eax
ffffffff80002f62:	89 f9                	mov    %edi,%ecx
ffffffff80002f64:	49 0f af c0          	imul   %r8,%rax
ffffffff80002f68:	48 c1 e8 23          	shr    $0x23,%rax
ffffffff80002f6c:	8d 34 80             	lea    (%rax,%rax,4),%esi
ffffffff80002f6f:	01 f6                	add    %esi,%esi
ffffffff80002f71:	29 f1                	sub    %esi,%ecx
ffffffff80002f73:	83 c1 30             	add    $0x30,%ecx
ffffffff80002f76:	88 0c 14             	mov    %cl,(%rsp,%rdx,1)
ffffffff80002f79:	89 f9                	mov    %edi,%ecx
ffffffff80002f7b:	89 c7                	mov    %eax,%edi
ffffffff80002f7d:	48 89 d0             	mov    %rdx,%rax
ffffffff80002f80:	48 83 c2 01          	add    $0x1,%rdx
ffffffff80002f84:	83 f9 09             	cmp    $0x9,%ecx
ffffffff80002f87:	77 d7                	ja     ffffffff80002f60 <console_write_u32+0x20>
ffffffff80002f89:	48 63 d0             	movslq %eax,%rdx
ffffffff80002f8c:	48 8d 6c 14 ff       	lea    -0x1(%rsp,%rdx,1),%rbp
ffffffff80002f91:	48 8d 1c 14          	lea    (%rsp,%rdx,1),%rbx
ffffffff80002f95:	48 29 c5             	sub    %rax,%rbp
ffffffff80002f98:	0f 1f 84 00 00 00 00 	nopl   0x0(%rax,%rax,1)
ffffffff80002f9f:	00 
ffffffff80002fa0:	0f be 3b             	movsbl (%rbx),%edi
ffffffff80002fa3:	48 83 eb 01          	sub    $0x1,%rbx
ffffffff80002fa7:	e8 a4 fd ff ff       	call   ffffffff80002d50 <console_putc>
ffffffff80002fac:	48 39 eb             	cmp    %rbp,%rbx
ffffffff80002faf:	75 ef                	jne    ffffffff80002fa0 <console_write_u32+0x60>
ffffffff80002fb1:	48 83 c4 18          	add    $0x18,%rsp
ffffffff80002fb5:	5b                   	pop    %rbx
ffffffff80002fb6:	5d                   	pop    %rbp
ffffffff80002fb7:	c3                   	ret
ffffffff80002fb8:	0f 1f 84 00 00 00 00 	nopl   0x0(%rax,%rax,1)
ffffffff80002fbf:	00 
ffffffff80002fc0:	bf 30 00 00 00       	mov    $0x30,%edi
ffffffff80002fc5:	e9 86 fd ff ff       	jmp    ffffffff80002d50 <console_putc>
ffffffff80002fca:	66 0f 1f 44 00 00    	nopw   0x0(%rax,%rax,1)

ffffffff80002fd0 <console_set_cursor>:
ffffffff80002fd0:	f3 0f 1e fa          	endbr64
ffffffff80002fd4:	89 3d ce 62 00 00    	mov    %edi,0x62ce(%rip)        # ffffffff800092a8 <cursor_x>
ffffffff80002fda:	89 35 c4 62 00 00    	mov    %esi,0x62c4(%rip)        # ffffffff800092a4 <cursor_y>
ffffffff80002fe0:	c3                   	ret
ffffffff80002fe1:	66 2e 0f 1f 84 00 00 	cs nopw 0x0(%rax,%rax,1)
ffffffff80002fe8:	00 00 00 
ffffffff80002feb:	0f 1f 44 00 00       	nopl   0x0(%rax,%rax,1)

ffffffff80002ff0 <test_heap>:
ffffffff80002ff0:	f3 0f 1e fa          	endbr64
ffffffff80002ff4:	55                   	push   %rbp
ffffffff80002ff5:	31 c0                	xor    %eax,%eax
ffffffff80002ff7:	53                   	push   %rbx
ffffffff80002ff8:	bb 20 00 00 00       	mov    $0x20,%ebx
ffffffff80002ffd:	48 83 ec 08          	sub    $0x8,%rsp
ffffffff80003001:	e8 7a f2 ff ff       	call   ffffffff80002280 <get_kernel_heap>
ffffffff80003006:	48 c7 c7 70 6a 00 80 	mov    $0xffffffff80006a70,%rdi
ffffffff8000300d:	48 89 c5             	mov    %rax,%rbp
ffffffff80003010:	e8 9b 28 00 00       	call   ffffffff800058b0 <serial_write_line>
ffffffff80003015:	48 8b 7d 00          	mov    0x0(%rbp),%rdi
ffffffff80003019:	e8 62 2b 00 00       	call   ffffffff80005b80 <serial_write_hex>
ffffffff8000301e:	48 8b 7d 10          	mov    0x10(%rbp),%rdi
ffffffff80003022:	e8 59 2b 00 00       	call   ffffffff80005b80 <serial_write_hex>
ffffffff80003027:	48 8b 45 10          	mov    0x10(%rbp),%rax
ffffffff8000302b:	48 8b 78 08          	mov    0x8(%rax),%rdi
ffffffff8000302f:	e8 4c 2b 00 00       	call   ffffffff80005b80 <serial_write_hex>
ffffffff80003034:	48 8b 45 10          	mov    0x10(%rbp),%rax
ffffffff80003038:	48 8b 38             	mov    (%rax),%rdi
ffffffff8000303b:	e8 d0 28 00 00       	call   ffffffff80005910 <serial_write_ulong>
ffffffff80003040:	bf 20 4e 00 00       	mov    $0x4e20,%edi
ffffffff80003045:	e8 36 f0 ff ff       	call   ffffffff80002080 <kmalloc>
ffffffff8000304a:	48 c7 c7 79 6a 00 80 	mov    $0xffffffff80006a79,%rdi
ffffffff80003051:	e8 5a 28 00 00       	call   ffffffff800058b0 <serial_write_line>
ffffffff80003056:	48 8b 7d 00          	mov    0x0(%rbp),%rdi
ffffffff8000305a:	e8 21 2b 00 00       	call   ffffffff80005b80 <serial_write_hex>
ffffffff8000305f:	48 8b 7d 10          	mov    0x10(%rbp),%rdi
ffffffff80003063:	e8 18 2b 00 00       	call   ffffffff80005b80 <serial_write_hex>
ffffffff80003068:	48 8b 45 10          	mov    0x10(%rbp),%rax
ffffffff8000306c:	48 8b 78 08          	mov    0x8(%rax),%rdi
ffffffff80003070:	e8 0b 2b 00 00       	call   ffffffff80005b80 <serial_write_hex>
ffffffff80003075:	48 8b 45 10          	mov    0x10(%rbp),%rax
ffffffff80003079:	48 8b 38             	mov    (%rax),%rdi
ffffffff8000307c:	e8 8f 28 00 00       	call   ffffffff80005910 <serial_write_ulong>
ffffffff80003081:	41 b8 ff 00 ff 00    	mov    $0xff00ff,%r8d
ffffffff80003087:	b9 20 00 00 00       	mov    $0x20,%ecx
ffffffff8000308c:	ba 20 00 00 00       	mov    $0x20,%edx
ffffffff80003091:	be 32 00 00 00       	mov    $0x32,%esi
ffffffff80003096:	bf 20 03 00 00       	mov    $0x320,%edi
ffffffff8000309b:	e8 70 fb ff ff       	call   ffffffff80002c10 <gfx_rect>
ffffffff800030a0:	41 b8 ff 00 ff 00    	mov    $0xff00ff,%r8d
ffffffff800030a6:	b9 20 00 00 00       	mov    $0x20,%ecx
ffffffff800030ab:	ba 20 00 00 00       	mov    $0x20,%edx
ffffffff800030b0:	be 32 00 00 00       	mov    $0x32,%esi
ffffffff800030b5:	bf e8 03 00 00       	mov    $0x3e8,%edi
ffffffff800030ba:	e8 51 fb ff ff       	call   ffffffff80002c10 <gfx_rect>
ffffffff800030bf:	41 b8 ff 00 ff 00    	mov    $0xff00ff,%r8d
ffffffff800030c5:	b9 32 00 00 00       	mov    $0x32,%ecx
ffffffff800030ca:	ba 20 00 00 00       	mov    $0x20,%edx
ffffffff800030cf:	be 96 00 00 00       	mov    $0x96,%esi
ffffffff800030d4:	bf 20 03 00 00       	mov    $0x320,%edi
ffffffff800030d9:	e8 32 fb ff ff       	call   ffffffff80002c10 <gfx_rect>
ffffffff800030de:	41 b8 ff 00 ff 00    	mov    $0xff00ff,%r8d
ffffffff800030e4:	b9 32 00 00 00       	mov    $0x32,%ecx
ffffffff800030e9:	ba 20 00 00 00       	mov    $0x20,%edx
ffffffff800030ee:	be 96 00 00 00       	mov    $0x96,%esi
ffffffff800030f3:	bf e8 03 00 00       	mov    $0x3e8,%edi
ffffffff800030f8:	e8 13 fb ff ff       	call   ffffffff80002c10 <gfx_rect>
ffffffff800030fd:	41 b8 ff 00 ff 00    	mov    $0xff00ff,%r8d
ffffffff80003103:	b9 20 00 00 00       	mov    $0x20,%ecx
ffffffff80003108:	ba e8 00 00 00       	mov    $0xe8,%edx
ffffffff8000310d:	be c8 00 00 00       	mov    $0xc8,%esi
ffffffff80003112:	bf 20 03 00 00       	mov    $0x320,%edi
ffffffff80003117:	e8 f4 fa ff ff       	call   ffffffff80002c10 <gfx_rect>
ffffffff8000311c:	0f 1f 40 00          	nopl   0x0(%rax)
ffffffff80003120:	89 df                	mov    %ebx,%edi
ffffffff80003122:	41 b8 00 ff 00 00    	mov    $0xff00,%r8d
ffffffff80003128:	b9 40 00 00 00       	mov    $0x40,%ecx
ffffffff8000312d:	83 c3 40             	add    $0x40,%ebx
ffffffff80003130:	ba 40 00 00 00       	mov    $0x40,%edx
ffffffff80003135:	be 80 00 00 00       	mov    $0x80,%esi
ffffffff8000313a:	e8 d1 fa ff ff       	call   ffffffff80002c10 <gfx_rect>
ffffffff8000313f:	81 fb 20 02 00 00    	cmp    $0x220,%ebx
ffffffff80003145:	75 d9                	jne    ffffffff80003120 <test_heap+0x130>
ffffffff80003147:	bb 60 00 00 00       	mov    $0x60,%ebx
ffffffff8000314c:	0f 1f 40 00          	nopl   0x0(%rax)
ffffffff80003150:	89 df                	mov    %ebx,%edi
ffffffff80003152:	41 b8 00 00 ff 00    	mov    $0xff0000,%r8d
ffffffff80003158:	b9 40 00 00 00       	mov    $0x40,%ecx
ffffffff8000315d:	83 c3 40             	add    $0x40,%ebx
ffffffff80003160:	ba 01 00 00 00       	mov    $0x1,%edx
ffffffff80003165:	be 80 00 00 00       	mov    $0x80,%esi
ffffffff8000316a:	e8 a1 fa ff ff       	call   ffffffff80002c10 <gfx_rect>
ffffffff8000316f:	81 fb 60 02 00 00    	cmp    $0x260,%ebx
ffffffff80003175:	75 d9                	jne    ffffffff80003150 <test_heap+0x160>
ffffffff80003177:	48 8b 5d 10          	mov    0x10(%rbp),%rbx
ffffffff8000317b:	48 85 db             	test   %rbx,%rbx
ffffffff8000317e:	74 46                	je     ffffffff800031c6 <test_heap+0x1d6>
ffffffff80003180:	48 8b 0b             	mov    (%rbx),%rcx
ffffffff80003183:	48 89 d8             	mov    %rbx,%rax
ffffffff80003186:	48 2b 45 00          	sub    0x0(%rbp),%rax
ffffffff8000318a:	be 84 00 00 00       	mov    $0x84,%esi
ffffffff8000318f:	48 c1 e8 07          	shr    $0x7,%rax
ffffffff80003193:	48 8d 51 20          	lea    0x20(%rcx),%rdx
ffffffff80003197:	8d 78 20             	lea    0x20(%rax),%edi
ffffffff8000319a:	b9 38 00 00 00       	mov    $0x38,%ecx
ffffffff8000319f:	48 c1 ea 07          	shr    $0x7,%rdx
ffffffff800031a3:	80 7b 18 01          	cmpb   $0x1,0x18(%rbx)
ffffffff800031a7:	45 19 c0             	sbb    %r8d,%r8d
ffffffff800031aa:	41 81 e0 2e 81 50 00 	and    $0x50812e,%r8d
ffffffff800031b1:	41 81 c0 80 ff ae 00 	add    $0xaeff80,%r8d
ffffffff800031b8:	e8 53 fa ff ff       	call   ffffffff80002c10 <gfx_rect>
ffffffff800031bd:	48 8b 5b 08          	mov    0x8(%rbx),%rbx
ffffffff800031c1:	48 85 db             	test   %rbx,%rbx
ffffffff800031c4:	75 ba                	jne    ffffffff80003180 <test_heap+0x190>
ffffffff800031c6:	48 8b 7d 08          	mov    0x8(%rbp),%rdi
ffffffff800031ca:	48 2b 7d 00          	sub    0x0(%rbp),%rdi
ffffffff800031ce:	48 c1 ef 0c          	shr    $0xc,%rdi
ffffffff800031d2:	e8 69 fd ff ff       	call   ffffffff80002f40 <console_write_u32>
ffffffff800031d7:	eb 08                	jmp    ffffffff800031e1 <test_heap+0x1f1>
ffffffff800031d9:	0f 1f 80 00 00 00 00 	nopl   0x0(%rax)
ffffffff800031e0:	f4                   	hlt
ffffffff800031e1:	e8 0a 24 00 00       	call   ffffffff800055f0 <keyboard_last>
ffffffff800031e6:	85 c0                	test   %eax,%eax
ffffffff800031e8:	74 f6                	je     ffffffff800031e0 <test_heap+0x1f0>
ffffffff800031ea:	48 83 c4 08          	add    $0x8,%rsp
ffffffff800031ee:	5b                   	pop    %rbx
ffffffff800031ef:	5d                   	pop    %rbp
ffffffff800031f0:	c3                   	ret
ffffffff800031f1:	66 2e 0f 1f 84 00 00 	cs nopw 0x0(%rax,%rax,1)
ffffffff800031f8:	00 00 00 
ffffffff800031fb:	0f 1f 44 00 00       	nopl   0x0(%rax,%rax,1)

ffffffff80003200 <task_2>:
ffffffff80003200:	f3 0f 1e fa          	endbr64
ffffffff80003204:	53                   	push   %rbx
ffffffff80003205:	31 db                	xor    %ebx,%ebx
ffffffff80003207:	66 0f 1f 84 00 00 00 	nopw   0x0(%rax,%rax,1)
ffffffff8000320e:	00 00 
ffffffff80003210:	48 c7 c7 81 6a 00 80 	mov    $0xffffffff80006a81,%rdi
ffffffff80003217:	e8 44 26 00 00       	call   ffffffff80005860 <serial_write>
ffffffff8000321c:	48 89 df             	mov    %rbx,%rdi
ffffffff8000321f:	48 83 c3 01          	add    $0x1,%rbx
ffffffff80003223:	e8 e8 26 00 00       	call   ffffffff80005910 <serial_write_ulong>
ffffffff80003228:	bf 0a 00 00 00       	mov    $0xa,%edi
ffffffff8000322d:	e8 fe 25 00 00       	call   ffffffff80005830 <serial_write_char>
ffffffff80003232:	eb dc                	jmp    ffffffff80003210 <task_2+0x10>
ffffffff80003234:	66 66 2e 0f 1f 84 00 	data16 cs nopw 0x0(%rax,%rax,1)
ffffffff8000323b:	00 00 00 00 
ffffffff8000323f:	90                   	nop

ffffffff80003240 <panic>:
ffffffff80003240:	f3 0f 1e fa          	endbr64
ffffffff80003244:	53                   	push   %rbx
ffffffff80003245:	48 89 fb             	mov    %rdi,%rbx
ffffffff80003248:	48 c7 c7 8a 6a 00 80 	mov    $0xffffffff80006a8a,%rdi
ffffffff8000324f:	e8 0c 26 00 00       	call   ffffffff80005860 <serial_write>
ffffffff80003254:	48 89 df             	mov    %rbx,%rdi
ffffffff80003257:	e8 04 26 00 00       	call   ffffffff80005860 <serial_write>
ffffffff8000325c:	fa                   	cli
ffffffff8000325d:	0f 1f 00             	nopl   (%rax)
ffffffff80003260:	f4                   	hlt
ffffffff80003261:	eb fd                	jmp    ffffffff80003260 <panic+0x20>
ffffffff80003263:	66 66 2e 0f 1f 84 00 	data16 cs nopw 0x0(%rax,%rax,1)
ffffffff8000326a:	00 00 00 00 
ffffffff8000326e:	66 90                	xchg   %ax,%ax

ffffffff80003270 <panic_assert>:
ffffffff80003270:	f3 0f 1e fa          	endbr64
ffffffff80003274:	41 54                	push   %r12
ffffffff80003276:	49 89 d4             	mov    %rdx,%r12
ffffffff80003279:	55                   	push   %rbp
ffffffff8000327a:	48 89 fd             	mov    %rdi,%rbp
ffffffff8000327d:	48 c7 c7 99 6a 00 80 	mov    $0xffffffff80006a99,%rdi
ffffffff80003284:	53                   	push   %rbx
ffffffff80003285:	89 f3                	mov    %esi,%ebx
ffffffff80003287:	e8 e4 fb ff ff       	call   ffffffff80002e70 <console_write>
ffffffff8000328c:	4c 89 e7             	mov    %r12,%rdi
ffffffff8000328f:	e8 0c fc ff ff       	call   ffffffff80002ea0 <console_write_line>
ffffffff80003294:	48 c7 c7 a9 6a 00 80 	mov    $0xffffffff80006aa9,%rdi
ffffffff8000329b:	e8 d0 fb ff ff       	call   ffffffff80002e70 <console_write>
ffffffff800032a0:	48 89 ef             	mov    %rbp,%rdi
ffffffff800032a3:	e8 f8 fb ff ff       	call   ffffffff80002ea0 <console_write_line>
ffffffff800032a8:	48 c7 c7 b0 6a 00 80 	mov    $0xffffffff80006ab0,%rdi
ffffffff800032af:	e8 bc fb ff ff       	call   ffffffff80002e70 <console_write>
ffffffff800032b4:	89 df                	mov    %ebx,%edi
ffffffff800032b6:	e8 85 fc ff ff       	call   ffffffff80002f40 <console_write_u32>
ffffffff800032bb:	48 c7 c7 7a 6b 00 80 	mov    $0xffffffff80006b7a,%rdi
ffffffff800032c2:	e8 a9 fb ff ff       	call   ffffffff80002e70 <console_write>
ffffffff800032c7:	fa                   	cli
ffffffff800032c8:	0f 1f 84 00 00 00 00 	nopl   0x0(%rax,%rax,1)
ffffffff800032cf:	00 
ffffffff800032d0:	f4                   	hlt
ffffffff800032d1:	eb fd                	jmp    ffffffff800032d0 <panic_assert+0x60>
ffffffff800032d3:	66 66 2e 0f 1f 84 00 	data16 cs nopw 0x0(%rax,%rax,1)
ffffffff800032da:	00 00 00 00 
ffffffff800032de:	66 90                	xchg   %ax,%ax

ffffffff800032e0 <isr0_handler>:
ffffffff800032e0:	f3 0f 1e fa          	endbr64
ffffffff800032e4:	50                   	push   %rax
ffffffff800032e5:	58                   	pop    %rax
ffffffff800032e6:	48 c7 c7 b7 6a 00 80 	mov    $0xffffffff80006ab7,%rdi
ffffffff800032ed:	48 83 ec 08          	sub    $0x8,%rsp
ffffffff800032f1:	e8 7a fb ff ff       	call   ffffffff80002e70 <console_write>
ffffffff800032f6:	66 2e 0f 1f 84 00 00 	cs nopw 0x0(%rax,%rax,1)
ffffffff800032fd:	00 00 00 
ffffffff80003300:	f4                   	hlt
ffffffff80003301:	eb fd                	jmp    ffffffff80003300 <isr0_handler+0x20>
ffffffff80003303:	66 66 2e 0f 1f 84 00 	data16 cs nopw 0x0(%rax,%rax,1)
ffffffff8000330a:	00 00 00 00 
ffffffff8000330e:	66 90                	xchg   %ax,%ax

ffffffff80003310 <isr3_handler>:
ffffffff80003310:	f3 0f 1e fa          	endbr64
ffffffff80003314:	48 c7 c7 d5 6a 00 80 	mov    $0xffffffff80006ad5,%rdi
ffffffff8000331b:	e9 50 fb ff ff       	jmp    ffffffff80002e70 <console_write>

ffffffff80003320 <isr13_handler>:
ffffffff80003320:	f3 0f 1e fa          	endbr64
ffffffff80003324:	53                   	push   %rbx
ffffffff80003325:	48 89 fb             	mov    %rdi,%rbx
ffffffff80003328:	48 c7 c7 28 71 00 80 	mov    $0xffffffff80007128,%rdi
ffffffff8000332f:	e8 3c fb ff ff       	call   ffffffff80002e70 <console_write>
ffffffff80003334:	48 89 df             	mov    %rbx,%rdi
ffffffff80003337:	e8 94 fb ff ff       	call   ffffffff80002ed0 <console_write_hex64>
ffffffff8000333c:	48 c7 c7 7a 6b 00 80 	mov    $0xffffffff80006b7a,%rdi
ffffffff80003343:	e8 28 fb ff ff       	call   ffffffff80002e70 <console_write>
ffffffff80003348:	0f 1f 84 00 00 00 00 	nopl   0x0(%rax,%rax,1)
ffffffff8000334f:	00 
ffffffff80003350:	f4                   	hlt
ffffffff80003351:	eb fd                	jmp    ffffffff80003350 <isr13_handler+0x30>
ffffffff80003353:	66 66 2e 0f 1f 84 00 	data16 cs nopw 0x0(%rax,%rax,1)
ffffffff8000335a:	00 00 00 00 
ffffffff8000335e:	66 90                	xchg   %ax,%ax

ffffffff80003360 <isr14_handler>:
ffffffff80003360:	f3 0f 1e fa          	endbr64
ffffffff80003364:	55                   	push   %rbp
ffffffff80003365:	53                   	push   %rbx
ffffffff80003366:	48 89 fb             	mov    %rdi,%rbx
ffffffff80003369:	48 83 ec 08          	sub    $0x8,%rsp
ffffffff8000336d:	0f 20 d5             	mov    %cr2,%rbp
ffffffff80003370:	48 c7 c7 58 71 00 80 	mov    $0xffffffff80007158,%rdi
ffffffff80003377:	e8 f4 fa ff ff       	call   ffffffff80002e70 <console_write>
ffffffff8000337c:	48 89 df             	mov    %rbx,%rdi
ffffffff8000337f:	e8 4c fb ff ff       	call   ffffffff80002ed0 <console_write_hex64>
ffffffff80003384:	48 c7 c7 ec 6a 00 80 	mov    $0xffffffff80006aec,%rdi
ffffffff8000338b:	e8 e0 fa ff ff       	call   ffffffff80002e70 <console_write>
ffffffff80003390:	48 89 ef             	mov    %rbp,%rdi
ffffffff80003393:	e8 38 fb ff ff       	call   ffffffff80002ed0 <console_write_hex64>
ffffffff80003398:	48 c7 c7 7a 6b 00 80 	mov    $0xffffffff80006b7a,%rdi
ffffffff8000339f:	e8 cc fa ff ff       	call   ffffffff80002e70 <console_write>
ffffffff800033a4:	0f 1f 40 00          	nopl   0x0(%rax)
ffffffff800033a8:	f4                   	hlt
ffffffff800033a9:	eb fd                	jmp    ffffffff800033a8 <isr14_handler+0x48>
ffffffff800033ab:	0f 1f 44 00 00       	nopl   0x0(%rax,%rax,1)

ffffffff800033b0 <drive_test>:
ffffffff800033b0:	f3 0f 1e fa          	endbr64
ffffffff800033b4:	53                   	push   %rbx
ffffffff800033b5:	48 c7 c7 f7 6a 00 80 	mov    $0xffffffff80006af7,%rdi
ffffffff800033bc:	31 db                	xor    %ebx,%ebx
ffffffff800033be:	48 81 ec 00 02 00 00 	sub    $0x200,%rsp
ffffffff800033c5:	e8 e6 24 00 00       	call   ffffffff800058b0 <serial_write_line>
ffffffff800033ca:	48 89 e2             	mov    %rsp,%rdx
ffffffff800033cd:	be 01 00 00 00       	mov    $0x1,%esi
ffffffff800033d2:	31 ff                	xor    %edi,%edi
ffffffff800033d4:	e8 27 29 00 00       	call   ffffffff80005d00 <ata_read>
ffffffff800033d9:	48 89 e7             	mov    %rsp,%rdi
ffffffff800033dc:	e8 7f 24 00 00       	call   ffffffff80005860 <serial_write>
ffffffff800033e1:	0f 1f 80 00 00 00 00 	nopl   0x0(%rax)
ffffffff800033e8:	48 89 df             	mov    %rbx,%rdi
ffffffff800033eb:	e8 90 27 00 00       	call   ffffffff80005b80 <serial_write_hex>
ffffffff800033f0:	48 c7 c7 75 6d 00 80 	mov    $0xffffffff80006d75,%rdi
ffffffff800033f7:	e8 64 24 00 00       	call   ffffffff80005860 <serial_write>
ffffffff800033fc:	48 0f be 3c 1c       	movsbq (%rsp,%rbx,1),%rdi
ffffffff80003401:	e8 7a 27 00 00       	call   ffffffff80005b80 <serial_write_hex>
ffffffff80003406:	48 c7 c7 0a 6b 00 80 	mov    $0xffffffff80006b0a,%rdi
ffffffff8000340d:	e8 4e 24 00 00       	call   ffffffff80005860 <serial_write>
ffffffff80003412:	0f be 3c 1c          	movsbl (%rsp,%rbx,1),%edi
ffffffff80003416:	48 83 c3 01          	add    $0x1,%rbx
ffffffff8000341a:	e8 11 24 00 00       	call   ffffffff80005830 <serial_write_char>
ffffffff8000341f:	bf 0a 00 00 00       	mov    $0xa,%edi
ffffffff80003424:	e8 07 24 00 00       	call   ffffffff80005830 <serial_write_char>
ffffffff80003429:	48 83 fb 0a          	cmp    $0xa,%rbx
ffffffff8000342d:	75 b9                	jne    ffffffff800033e8 <drive_test+0x38>
ffffffff8000342f:	48 89 e7             	mov    %rsp,%rdi
ffffffff80003432:	e8 29 24 00 00       	call   ffffffff80005860 <serial_write>
ffffffff80003437:	bf 0a 00 00 00       	mov    $0xa,%edi
ffffffff8000343c:	e8 ef 23 00 00       	call   ffffffff80005830 <serial_write_char>
ffffffff80003441:	48 c7 c7 10 6b 00 80 	mov    $0xffffffff80006b10,%rdi
ffffffff80003448:	e8 63 24 00 00       	call   ffffffff800058b0 <serial_write_line>
ffffffff8000344d:	48 81 c4 00 02 00 00 	add    $0x200,%rsp
ffffffff80003454:	5b                   	pop    %rbx
ffffffff80003455:	c3                   	ret
ffffffff80003456:	66 2e 0f 1f 84 00 00 	cs nopw 0x0(%rax,%rax,1)
ffffffff8000345d:	00 00 00 

ffffffff80003460 <menu>:
ffffffff80003460:	f3 0f 1e fa          	endbr64
ffffffff80003464:	53                   	push   %rbx
ffffffff80003465:	31 db                	xor    %ebx,%ebx
ffffffff80003467:	66 0f 1f 84 00 00 00 	nopw   0x0(%rax,%rax,1)
ffffffff8000346e:	00 00 
ffffffff80003470:	bf 50 10 10 00       	mov    $0x101050,%edi
ffffffff80003475:	e8 56 f8 ff ff       	call   ffffffff80002cd0 <console_clear>
ffffffff8000347a:	48 c7 c7 23 6b 00 80 	mov    $0xffffffff80006b23,%rdi
ffffffff80003481:	e8 1a fa ff ff       	call   ffffffff80002ea0 <console_write_line>
ffffffff80003486:	85 db                	test   %ebx,%ebx
ffffffff80003488:	0f 84 22 01 00 00    	je     ffffffff800035b0 <menu+0x150>
ffffffff8000348e:	48 c7 c7 29 6d 00 80 	mov    $0xffffffff80006d29,%rdi
ffffffff80003495:	e8 d6 f9 ff ff       	call   ffffffff80002e70 <console_write>
ffffffff8000349a:	48 c7 c7 33 6b 00 80 	mov    $0xffffffff80006b33,%rdi
ffffffff800034a1:	e8 ca f9 ff ff       	call   ffffffff80002e70 <console_write>
ffffffff800034a6:	48 c7 c7 7a 6b 00 80 	mov    $0xffffffff80006b7a,%rdi
ffffffff800034ad:	e8 be f9 ff ff       	call   ffffffff80002e70 <console_write>
ffffffff800034b2:	83 fb 01             	cmp    $0x1,%ebx
ffffffff800034b5:	0f 85 95 01 00 00    	jne    ffffffff80003650 <menu+0x1f0>
ffffffff800034bb:	48 c7 c7 30 6b 00 80 	mov    $0xffffffff80006b30,%rdi
ffffffff800034c2:	e8 a9 f9 ff ff       	call   ffffffff80002e70 <console_write>
ffffffff800034c7:	48 c7 c7 3d 6b 00 80 	mov    $0xffffffff80006b3d,%rdi
ffffffff800034ce:	e8 9d f9 ff ff       	call   ffffffff80002e70 <console_write>
ffffffff800034d3:	48 c7 c7 7a 6b 00 80 	mov    $0xffffffff80006b7a,%rdi
ffffffff800034da:	e8 91 f9 ff ff       	call   ffffffff80002e70 <console_write>
ffffffff800034df:	48 c7 c7 29 6d 00 80 	mov    $0xffffffff80006d29,%rdi
ffffffff800034e6:	e8 85 f9 ff ff       	call   ffffffff80002e70 <console_write>
ffffffff800034eb:	48 c7 c7 4d 6b 00 80 	mov    $0xffffffff80006b4d,%rdi
ffffffff800034f2:	e8 79 f9 ff ff       	call   ffffffff80002e70 <console_write>
ffffffff800034f7:	48 c7 c7 7a 6b 00 80 	mov    $0xffffffff80006b7a,%rdi
ffffffff800034fe:	e8 6d f9 ff ff       	call   ffffffff80002e70 <console_write>
ffffffff80003503:	48 c7 c7 29 6d 00 80 	mov    $0xffffffff80006d29,%rdi
ffffffff8000350a:	e8 61 f9 ff ff       	call   ffffffff80002e70 <console_write>
ffffffff8000350f:	48 c7 c7 51 6b 00 80 	mov    $0xffffffff80006b51,%rdi
ffffffff80003516:	e8 55 f9 ff ff       	call   ffffffff80002e70 <console_write>
ffffffff8000351b:	48 c7 c7 7a 6b 00 80 	mov    $0xffffffff80006b7a,%rdi
ffffffff80003522:	e8 49 f9 ff ff       	call   ffffffff80002e70 <console_write>
ffffffff80003527:	48 c7 c7 29 6d 00 80 	mov    $0xffffffff80006d29,%rdi
ffffffff8000352e:	e8 3d f9 ff ff       	call   ffffffff80002e70 <console_write>
ffffffff80003533:	48 c7 c7 60 6b 00 80 	mov    $0xffffffff80006b60,%rdi
ffffffff8000353a:	e8 31 f9 ff ff       	call   ffffffff80002e70 <console_write>
ffffffff8000353f:	48 c7 c7 7a 6b 00 80 	mov    $0xffffffff80006b7a,%rdi
ffffffff80003546:	e8 25 f9 ff ff       	call   ffffffff80002e70 <console_write>
ffffffff8000354b:	eb 04                	jmp    ffffffff80003551 <menu+0xf1>
ffffffff8000354d:	0f 1f 00             	nopl   (%rax)
ffffffff80003550:	f4                   	hlt
ffffffff80003551:	e8 9a 20 00 00       	call   ffffffff800055f0 <keyboard_last>
ffffffff80003556:	85 c0                	test   %eax,%eax
ffffffff80003558:	74 f6                	je     ffffffff80003550 <menu+0xf0>
ffffffff8000355a:	83 f8 11             	cmp    $0x11,%eax
ffffffff8000355d:	0f 84 c5 01 00 00    	je     ffffffff80003728 <menu+0x2c8>
ffffffff80003563:	83 f8 13             	cmp    $0x13,%eax
ffffffff80003566:	0f 84 1c 01 00 00    	je     ffffffff80003688 <menu+0x228>
ffffffff8000356c:	83 f8 0d             	cmp    $0xd,%eax
ffffffff8000356f:	0f 85 fb fe ff ff    	jne    ffffffff80003470 <menu+0x10>
ffffffff80003575:	83 fb 02             	cmp    $0x2,%ebx
ffffffff80003578:	0f 84 d6 01 00 00    	je     ffffffff80003754 <menu+0x2f4>
ffffffff8000357e:	83 fb 03             	cmp    $0x3,%ebx
ffffffff80003581:	0f 84 c1 01 00 00    	je     ffffffff80003748 <menu+0x2e8>
ffffffff80003587:	85 db                	test   %ebx,%ebx
ffffffff80003589:	75 07                	jne    ffffffff80003592 <menu+0x132>
ffffffff8000358b:	31 c0                	xor    %eax,%eax
ffffffff8000358d:	e8 5e fa ff ff       	call   ffffffff80002ff0 <test_heap>
ffffffff80003592:	bf 50 10 10 00       	mov    $0x101050,%edi
ffffffff80003597:	e8 34 f7 ff ff       	call   ffffffff80002cd0 <console_clear>
ffffffff8000359c:	48 c7 c7 23 6b 00 80 	mov    $0xffffffff80006b23,%rdi
ffffffff800035a3:	e8 f8 f8 ff ff       	call   ffffffff80002ea0 <console_write_line>
ffffffff800035a8:	0f 1f 84 00 00 00 00 	nopl   0x0(%rax,%rax,1)
ffffffff800035af:	00 
ffffffff800035b0:	48 c7 c7 30 6b 00 80 	mov    $0xffffffff80006b30,%rdi
ffffffff800035b7:	31 db                	xor    %ebx,%ebx
ffffffff800035b9:	e8 b2 f8 ff ff       	call   ffffffff80002e70 <console_write>
ffffffff800035be:	48 c7 c7 33 6b 00 80 	mov    $0xffffffff80006b33,%rdi
ffffffff800035c5:	e8 a6 f8 ff ff       	call   ffffffff80002e70 <console_write>
ffffffff800035ca:	48 c7 c7 7a 6b 00 80 	mov    $0xffffffff80006b7a,%rdi
ffffffff800035d1:	e8 9a f8 ff ff       	call   ffffffff80002e70 <console_write>
ffffffff800035d6:	48 c7 c7 29 6d 00 80 	mov    $0xffffffff80006d29,%rdi
ffffffff800035dd:	e8 8e f8 ff ff       	call   ffffffff80002e70 <console_write>
ffffffff800035e2:	48 c7 c7 3d 6b 00 80 	mov    $0xffffffff80006b3d,%rdi
ffffffff800035e9:	e8 82 f8 ff ff       	call   ffffffff80002e70 <console_write>
ffffffff800035ee:	48 c7 c7 7a 6b 00 80 	mov    $0xffffffff80006b7a,%rdi
ffffffff800035f5:	e8 76 f8 ff ff       	call   ffffffff80002e70 <console_write>
ffffffff800035fa:	48 c7 c7 29 6d 00 80 	mov    $0xffffffff80006d29,%rdi
ffffffff80003601:	e8 6a f8 ff ff       	call   ffffffff80002e70 <console_write>
ffffffff80003606:	48 c7 c7 4d 6b 00 80 	mov    $0xffffffff80006b4d,%rdi
ffffffff8000360d:	e8 5e f8 ff ff       	call   ffffffff80002e70 <console_write>
ffffffff80003612:	48 c7 c7 7a 6b 00 80 	mov    $0xffffffff80006b7a,%rdi
ffffffff80003619:	e8 52 f8 ff ff       	call   ffffffff80002e70 <console_write>
ffffffff8000361e:	48 c7 c7 29 6d 00 80 	mov    $0xffffffff80006d29,%rdi
ffffffff80003625:	e8 46 f8 ff ff       	call   ffffffff80002e70 <console_write>
ffffffff8000362a:	48 c7 c7 51 6b 00 80 	mov    $0xffffffff80006b51,%rdi
ffffffff80003631:	e8 3a f8 ff ff       	call   ffffffff80002e70 <console_write>
ffffffff80003636:	48 c7 c7 7a 6b 00 80 	mov    $0xffffffff80006b7a,%rdi
ffffffff8000363d:	e8 2e f8 ff ff       	call   ffffffff80002e70 <console_write>
ffffffff80003642:	e9 e0 fe ff ff       	jmp    ffffffff80003527 <menu+0xc7>
ffffffff80003647:	66 0f 1f 84 00 00 00 	nopw   0x0(%rax,%rax,1)
ffffffff8000364e:	00 00 
ffffffff80003650:	48 c7 c7 29 6d 00 80 	mov    $0xffffffff80006d29,%rdi
ffffffff80003657:	e8 14 f8 ff ff       	call   ffffffff80002e70 <console_write>
ffffffff8000365c:	48 c7 c7 3d 6b 00 80 	mov    $0xffffffff80006b3d,%rdi
ffffffff80003663:	e8 08 f8 ff ff       	call   ffffffff80002e70 <console_write>
ffffffff80003668:	48 c7 c7 7a 6b 00 80 	mov    $0xffffffff80006b7a,%rdi
ffffffff8000366f:	e8 fc f7 ff ff       	call   ffffffff80002e70 <console_write>
ffffffff80003674:	83 fb 02             	cmp    $0x2,%ebx
ffffffff80003677:	75 76                	jne    ffffffff800036ef <menu+0x28f>
ffffffff80003679:	48 c7 c7 30 6b 00 80 	mov    $0xffffffff80006b30,%rdi
ffffffff80003680:	e9 61 fe ff ff       	jmp    ffffffff800034e6 <menu+0x86>
ffffffff80003685:	0f 1f 00             	nopl   (%rax)
ffffffff80003688:	83 fb 03             	cmp    $0x3,%ebx
ffffffff8000368b:	0f 8e af 00 00 00    	jle    ffffffff80003740 <menu+0x2e0>
ffffffff80003691:	bf 50 10 10 00       	mov    $0x101050,%edi
ffffffff80003696:	e8 35 f6 ff ff       	call   ffffffff80002cd0 <console_clear>
ffffffff8000369b:	48 c7 c7 23 6b 00 80 	mov    $0xffffffff80006b23,%rdi
ffffffff800036a2:	e8 f9 f7 ff ff       	call   ffffffff80002ea0 <console_write_line>
ffffffff800036a7:	48 c7 c7 29 6d 00 80 	mov    $0xffffffff80006d29,%rdi
ffffffff800036ae:	e8 bd f7 ff ff       	call   ffffffff80002e70 <console_write>
ffffffff800036b3:	48 c7 c7 33 6b 00 80 	mov    $0xffffffff80006b33,%rdi
ffffffff800036ba:	e8 b1 f7 ff ff       	call   ffffffff80002e70 <console_write>
ffffffff800036bf:	48 c7 c7 7a 6b 00 80 	mov    $0xffffffff80006b7a,%rdi
ffffffff800036c6:	e8 a5 f7 ff ff       	call   ffffffff80002e70 <console_write>
ffffffff800036cb:	48 c7 c7 29 6d 00 80 	mov    $0xffffffff80006d29,%rdi
ffffffff800036d2:	e8 99 f7 ff ff       	call   ffffffff80002e70 <console_write>
ffffffff800036d7:	48 c7 c7 3d 6b 00 80 	mov    $0xffffffff80006b3d,%rdi
ffffffff800036de:	e8 8d f7 ff ff       	call   ffffffff80002e70 <console_write>
ffffffff800036e3:	48 c7 c7 7a 6b 00 80 	mov    $0xffffffff80006b7a,%rdi
ffffffff800036ea:	e8 81 f7 ff ff       	call   ffffffff80002e70 <console_write>
ffffffff800036ef:	48 c7 c7 29 6d 00 80 	mov    $0xffffffff80006d29,%rdi
ffffffff800036f6:	e8 75 f7 ff ff       	call   ffffffff80002e70 <console_write>
ffffffff800036fb:	48 c7 c7 4d 6b 00 80 	mov    $0xffffffff80006b4d,%rdi
ffffffff80003702:	e8 69 f7 ff ff       	call   ffffffff80002e70 <console_write>
ffffffff80003707:	48 c7 c7 7a 6b 00 80 	mov    $0xffffffff80006b7a,%rdi
ffffffff8000370e:	e8 5d f7 ff ff       	call   ffffffff80002e70 <console_write>
ffffffff80003713:	83 fb 03             	cmp    $0x3,%ebx
ffffffff80003716:	75 3e                	jne    ffffffff80003756 <menu+0x2f6>
ffffffff80003718:	48 c7 c7 30 6b 00 80 	mov    $0xffffffff80006b30,%rdi
ffffffff8000371f:	e9 e6 fd ff ff       	jmp    ffffffff8000350a <menu+0xaa>
ffffffff80003724:	0f 1f 40 00          	nopl   0x0(%rax)
ffffffff80003728:	31 c0                	xor    %eax,%eax
ffffffff8000372a:	85 db                	test   %ebx,%ebx
ffffffff8000372c:	0f 9f c0             	setg   %al
ffffffff8000372f:	29 c3                	sub    %eax,%ebx
ffffffff80003731:	e9 3a fd ff ff       	jmp    ffffffff80003470 <menu+0x10>
ffffffff80003736:	66 2e 0f 1f 84 00 00 	cs nopw 0x0(%rax,%rax,1)
ffffffff8000373d:	00 00 00 
ffffffff80003740:	83 c3 01             	add    $0x1,%ebx
ffffffff80003743:	e9 28 fd ff ff       	jmp    ffffffff80003470 <menu+0x10>
ffffffff80003748:	31 c0                	xor    %eax,%eax
ffffffff8000374a:	e8 61 fc ff ff       	call   ffffffff800033b0 <drive_test>
ffffffff8000374f:	e9 3e fe ff ff       	jmp    ffffffff80003592 <menu+0x132>
ffffffff80003754:	0f 0b                	ud2
ffffffff80003756:	48 c7 c7 29 6d 00 80 	mov    $0xffffffff80006d29,%rdi
ffffffff8000375d:	e8 0e f7 ff ff       	call   ffffffff80002e70 <console_write>
ffffffff80003762:	48 c7 c7 51 6b 00 80 	mov    $0xffffffff80006b51,%rdi
ffffffff80003769:	e8 02 f7 ff ff       	call   ffffffff80002e70 <console_write>
ffffffff8000376e:	48 c7 c7 7a 6b 00 80 	mov    $0xffffffff80006b7a,%rdi
ffffffff80003775:	e8 f6 f6 ff ff       	call   ffffffff80002e70 <console_write>
ffffffff8000377a:	48 c7 c7 30 6b 00 80 	mov    $0xffffffff80006b30,%rdi
ffffffff80003781:	83 fb 04             	cmp    $0x4,%ebx
ffffffff80003784:	0f 84 a4 fd ff ff    	je     ffffffff8000352e <menu+0xce>
ffffffff8000378a:	e9 98 fd ff ff       	jmp    ffffffff80003527 <menu+0xc7>
ffffffff8000378f:	90                   	nop

ffffffff80003790 <kernel_pre_main>:
ffffffff80003790:	f3 0f 1e fa          	endbr64
ffffffff80003794:	53                   	push   %rbx
ffffffff80003795:	48 89 fb             	mov    %rdi,%rbx
ffffffff80003798:	e8 43 20 00 00       	call   ffffffff800057e0 <serial_init>
ffffffff8000379d:	8b 43 08             	mov    0x8(%rbx),%eax
ffffffff800037a0:	48 89 df             	mov    %rbx,%rdi
ffffffff800037a3:	89 05 1f 5b 00 00    	mov    %eax,0x5b1f(%rip)        # ffffffff800092c8 <fb_width>
ffffffff800037a9:	8b 43 0c             	mov    0xc(%rbx),%eax
ffffffff800037ac:	89 05 12 5b 00 00    	mov    %eax,0x5b12(%rip)        # ffffffff800092c4 <fb_height>
ffffffff800037b2:	8b 43 10             	mov    0x10(%rbx),%eax
ffffffff800037b5:	89 05 05 5b 00 00    	mov    %eax,0x5b05(%rip)        # ffffffff800092c0 <fb_pitch>
ffffffff800037bb:	e8 80 ed ff ff       	call   ffffffff80002540 <pmm_init>
ffffffff800037c0:	48 c7 c7 6b 6b 00 80 	mov    $0xffffffff80006b6b,%rdi
ffffffff800037c7:	e8 94 20 00 00       	call   ffffffff80005860 <serial_write>
ffffffff800037cc:	48 89 df             	mov    %rbx,%rdi
ffffffff800037cf:	e8 8c e2 ff ff       	call   ffffffff80001a60 <vmm_init>
ffffffff800037d4:	48 c7 c7 7c 6b 00 80 	mov    $0xffffffff80006b7c,%rdi
ffffffff800037db:	e8 80 20 00 00       	call   ffffffff80005860 <serial_write>
ffffffff800037e0:	48 bf 00 00 00 00 00 	movabs $0xffffc00000000000,%rdi
ffffffff800037e7:	c0 ff ff 
ffffffff800037ea:	e8 11 c8 ff ff       	call   ffffffff80000000 <__kernel_virt_start>
ffffffff800037ef:	48 c7 c7 80 71 00 80 	mov    $0xffffffff80007180,%rdi
ffffffff800037f6:	e8 45 fa ff ff       	call   ffffffff80003240 <panic>
ffffffff800037fb:	0f 1f 44 00 00       	nopl   0x0(%rax,%rax,1)

ffffffff80003800 <kernel_main>:
ffffffff80003800:	f3 0f 1e fa          	endbr64
ffffffff80003804:	41 57                	push   %r15
ffffffff80003806:	48 c7 c7 8d 6b 00 80 	mov    $0xffffffff80006b8d,%rdi
ffffffff8000380d:	41 56                	push   %r14
ffffffff8000380f:	41 55                	push   %r13
ffffffff80003811:	41 54                	push   %r12
ffffffff80003813:	55                   	push   %rbp
ffffffff80003814:	53                   	push   %rbx
ffffffff80003815:	48 83 ec 18          	sub    $0x18,%rsp
ffffffff80003819:	e8 92 20 00 00       	call   ffffffff800058b0 <serial_write_line>
ffffffff8000381e:	48 c7 c7 93 6b 00 80 	mov    $0xffffffff80006b93,%rdi
ffffffff80003825:	e8 86 20 00 00       	call   ffffffff800058b0 <serial_write_line>
ffffffff8000382a:	48 89 e3             	mov    %rsp,%rbx
ffffffff8000382d:	48 c7 c7 a3 68 00 80 	mov    $0xffffffff800068a3,%rdi
ffffffff80003834:	e8 27 20 00 00       	call   ffffffff80005860 <serial_write>
ffffffff80003839:	48 89 df             	mov    %rbx,%rdi
ffffffff8000383c:	48 bb 00 00 00 00 00 	movabs $0xffff900000000000,%rbx
ffffffff80003843:	90 ff ff 
ffffffff80003846:	e8 35 23 00 00       	call   ffffffff80005b80 <serial_write_hex>
ffffffff8000384b:	bf 0a 00 00 00       	mov    $0xa,%edi
ffffffff80003850:	e8 db 1f 00 00       	call   ffffffff80005830 <serial_write_char>
ffffffff80003855:	31 c0                	xor    %eax,%eax
ffffffff80003857:	e8 84 e7 ff ff       	call   ffffffff80001fe0 <heap_init>
ffffffff8000385c:	48 c7 03 00 00 ff 00 	movq   $0xff0000,(%rbx)
ffffffff80003863:	48 89 df             	mov    %rbx,%rdi
ffffffff80003866:	8b 0d 54 5a 00 00    	mov    0x5a54(%rip),%ecx        # ffffffff800092c0 <fb_pitch>
ffffffff8000386c:	8b 15 52 5a 00 00    	mov    0x5a52(%rip),%edx        # ffffffff800092c4 <fb_height>
ffffffff80003872:	8b 35 50 5a 00 00    	mov    0x5a50(%rip),%esi        # ffffffff800092c8 <fb_width>
ffffffff80003878:	e8 d3 f2 ff ff       	call   ffffffff80002b50 <gfx_init>
ffffffff8000387d:	8b 0d 3d 5a 00 00    	mov    0x5a3d(%rip),%ecx        # ffffffff800092c0 <fb_pitch>
ffffffff80003883:	8b 15 3b 5a 00 00    	mov    0x5a3b(%rip),%edx        # ffffffff800092c4 <fb_height>
ffffffff80003889:	48 89 df             	mov    %rbx,%rdi
ffffffff8000388c:	8b 35 36 5a 00 00    	mov    0x5a36(%rip),%esi        # ffffffff800092c8 <fb_width>
ffffffff80003892:	e8 f9 f3 ff ff       	call   ffffffff80002c90 <console_init>
ffffffff80003897:	48 c7 c7 a6 6b 00 80 	mov    $0xffffffff80006ba6,%rdi
ffffffff8000389e:	e8 fd f5 ff ff       	call   ffffffff80002ea0 <console_write_line>
ffffffff800038a3:	e8 78 16 00 00       	call   ffffffff80004f20 <gdt_init>
ffffffff800038a8:	e8 33 17 00 00       	call   ffffffff80004fe0 <syscall_init>
ffffffff800038ad:	e8 be 09 00 00       	call   ffffffff80004270 <idt_init>
ffffffff800038b2:	be 28 00 00 00       	mov    $0x28,%esi
ffffffff800038b7:	bf 20 00 00 00       	mov    $0x20,%edi
ffffffff800038bc:	e8 5f 1d 00 00       	call   ffffffff80005620 <pic_remap>
ffffffff800038c1:	e8 9a 1e 00 00       	call   ffffffff80005760 <pic_mask_all>
ffffffff800038c6:	31 ff                	xor    %edi,%edi
ffffffff800038c8:	e8 c3 1e 00 00       	call   ffffffff80005790 <pic_unmask_irq>
ffffffff800038cd:	bf 01 00 00 00       	mov    $0x1,%edi
ffffffff800038d2:	e8 b9 1e 00 00       	call   ffffffff80005790 <pic_unmask_irq>
ffffffff800038d7:	31 c0                	xor    %eax,%eax
ffffffff800038d9:	e8 02 1b 00 00       	call   ffffffff800053e0 <exceptions_init>
ffffffff800038de:	e8 ed 1c 00 00       	call   ffffffff800055d0 <keyboard_init>
ffffffff800038e3:	e8 c8 23 00 00       	call   ffffffff80005cb0 <ata_init>
ffffffff800038e8:	31 ff                	xor    %edi,%edi
ffffffff800038ea:	e8 61 dc ff ff       	call   ffffffff80001550 <fat32_init>
ffffffff800038ef:	e8 7c dc ff ff       	call   ffffffff80001570 <fat32_print_root>
ffffffff800038f4:	48 c7 c7 c0 71 00 80 	mov    $0xffffffff800071c0,%rdi
ffffffff800038fb:	e8 60 d5 ff ff       	call   ffffffff80000e60 <fat32_open>
ffffffff80003900:	48 c7 c7 d1 6b 00 80 	mov    $0xffffffff80006bd1,%rdi
ffffffff80003907:	49 89 c5             	mov    %rax,%r13
ffffffff8000390a:	e8 51 d5 ff ff       	call   ffffffff80000e60 <fat32_open>
ffffffff8000390f:	48 c7 c7 b4 6b 00 80 	mov    $0xffffffff80006bb4,%rdi
ffffffff80003916:	49 89 c4             	mov    %rax,%r12
ffffffff80003919:	e8 42 d5 ff ff       	call   ffffffff80000e60 <fat32_open>
ffffffff8000391e:	48 c7 c7 bd 6b 00 80 	mov    $0xffffffff80006bbd,%rdi
ffffffff80003925:	48 89 c5             	mov    %rax,%rbp
ffffffff80003928:	e8 33 1f 00 00       	call   ffffffff80005860 <serial_write>
ffffffff8000392d:	48 c7 c7 c7 6b 00 80 	mov    $0xffffffff80006bc7,%rdi
ffffffff80003934:	e8 27 d5 ff ff       	call   ffffffff80000e60 <fat32_open>
ffffffff80003939:	48 c7 c7 dc 6b 00 80 	mov    $0xffffffff80006bdc,%rdi
ffffffff80003940:	48 89 c3             	mov    %rax,%rbx
ffffffff80003943:	e8 18 1f 00 00       	call   ffffffff80005860 <serial_write>
ffffffff80003948:	41 8b 7d 04          	mov    0x4(%r13),%edi
ffffffff8000394c:	e8 2f e7 ff ff       	call   ffffffff80002080 <kmalloc>
ffffffff80003951:	41 8b 7c 24 04       	mov    0x4(%r12),%edi
ffffffff80003956:	49 89 c7             	mov    %rax,%r15
ffffffff80003959:	e8 22 e7 ff ff       	call   ffffffff80002080 <kmalloc>
ffffffff8000395e:	8b 7d 04             	mov    0x4(%rbp),%edi
ffffffff80003961:	49 89 c6             	mov    %rax,%r14
ffffffff80003964:	e8 17 e7 ff ff       	call   ffffffff80002080 <kmalloc>
ffffffff80003969:	8b 7b 04             	mov    0x4(%rbx),%edi
ffffffff8000396c:	48 89 04 24          	mov    %rax,(%rsp)
ffffffff80003970:	e8 0b e7 ff ff       	call   ffffffff80002080 <kmalloc>
ffffffff80003975:	41 8b 55 04          	mov    0x4(%r13),%edx
ffffffff80003979:	4c 89 fe             	mov    %r15,%rsi
ffffffff8000397c:	4c 89 ef             	mov    %r13,%rdi
ffffffff8000397f:	48 89 44 24 08       	mov    %rax,0x8(%rsp)
ffffffff80003984:	e8 e7 d7 ff ff       	call   ffffffff80001170 <fat32_read>
ffffffff80003989:	41 8b 54 24 04       	mov    0x4(%r12),%edx
ffffffff8000398e:	4c 89 f6             	mov    %r14,%rsi
ffffffff80003991:	4c 89 e7             	mov    %r12,%rdi
ffffffff80003994:	e8 d7 d7 ff ff       	call   ffffffff80001170 <fat32_read>
ffffffff80003999:	4c 8b 2c 24          	mov    (%rsp),%r13
ffffffff8000399d:	8b 55 04             	mov    0x4(%rbp),%edx
ffffffff800039a0:	48 89 ef             	mov    %rbp,%rdi
ffffffff800039a3:	4c 89 ee             	mov    %r13,%rsi
ffffffff800039a6:	e8 c5 d7 ff ff       	call   ffffffff80001170 <fat32_read>
ffffffff800039ab:	48 8b 6c 24 08       	mov    0x8(%rsp),%rbp
ffffffff800039b0:	8b 53 04             	mov    0x4(%rbx),%edx
ffffffff800039b3:	48 89 df             	mov    %rbx,%rdi
ffffffff800039b6:	48 89 ee             	mov    %rbp,%rsi
ffffffff800039b9:	e8 b2 d7 ff ff       	call   ffffffff80001170 <fat32_read>
ffffffff800039be:	4c 89 ff             	mov    %r15,%rdi
ffffffff800039c1:	e8 9a 1e 00 00       	call   ffffffff80005860 <serial_write>
ffffffff800039c6:	4c 89 f7             	mov    %r14,%rdi
ffffffff800039c9:	e8 92 1e 00 00       	call   ffffffff80005860 <serial_write>
ffffffff800039ce:	4c 89 ef             	mov    %r13,%rdi
ffffffff800039d1:	e8 8a 1e 00 00       	call   ffffffff80005860 <serial_write>
ffffffff800039d6:	48 89 ef             	mov    %rbp,%rdi
ffffffff800039d9:	e8 82 1e 00 00       	call   ffffffff80005860 <serial_write>
ffffffff800039de:	48 c7 c7 e5 6b 00 80 	mov    $0xffffffff80006be5,%rdi
ffffffff800039e5:	e8 76 1e 00 00       	call   ffffffff80005860 <serial_write>
ffffffff800039ea:	fb                   	sti
ffffffff800039eb:	48 c7 c7 f5 6b 00 80 	mov    $0xffffffff80006bf5,%rdi
ffffffff800039f2:	e8 b9 1e 00 00       	call   ffffffff800058b0 <serial_write_line>
ffffffff800039f7:	cd 20                	int    $0x20
ffffffff800039f9:	cd 21                	int    $0x21
ffffffff800039fb:	31 c0                	xor    %eax,%eax
ffffffff800039fd:	e8 ce 02 00 00       	call   ffffffff80003cd0 <scheduler_init>
ffffffff80003a02:	48 c7 c7 fb 6b 00 80 	mov    $0xffffffff80006bfb,%rdi
ffffffff80003a09:	e8 a2 1e 00 00       	call   ffffffff800058b0 <serial_write_line>
ffffffff80003a0e:	48 c7 c2 11 6c 00 80 	mov    $0xffffffff80006c11,%rdx
ffffffff80003a15:	31 f6                	xor    %esi,%esi
ffffffff80003a17:	48 c7 c7 60 34 00 80 	mov    $0xffffffff80003460,%rdi
ffffffff80003a1e:	e8 ed 03 00 00       	call   ffffffff80003e10 <task_create_kernel>
ffffffff80003a23:	48 c7 c2 1d 6c 00 80 	mov    $0xffffffff80006c1d,%rdx
ffffffff80003a2a:	31 f6                	xor    %esi,%esi
ffffffff80003a2c:	48 c7 c7 00 32 00 80 	mov    $0xffffffff80003200,%rdi
ffffffff80003a33:	48 89 c3             	mov    %rax,%rbx
ffffffff80003a36:	e8 d5 03 00 00       	call   ffffffff80003e10 <task_create_kernel>
ffffffff80003a3b:	48 c7 c7 24 6c 00 80 	mov    $0xffffffff80006c24,%rdi
ffffffff80003a42:	48 89 c5             	mov    %rax,%rbp
ffffffff80003a45:	e8 16 d4 ff ff       	call   ffffffff80000e60 <fat32_open>
ffffffff80003a4a:	48 89 c7             	mov    %rax,%rdi
ffffffff80003a4d:	e8 5e d2 ff ff       	call   ffffffff80000cb0 <elf_load>
ffffffff80003a52:	48 c7 c7 37 6c 00 80 	mov    $0xffffffff80006c37,%rdi
ffffffff80003a59:	49 89 c4             	mov    %rax,%r12
ffffffff80003a5c:	e8 4f 1e 00 00       	call   ffffffff800058b0 <serial_write_line>
ffffffff80003a61:	4c 89 e7             	mov    %r12,%rdi
ffffffff80003a64:	e8 57 03 00 00       	call   ffffffff80003dc0 <scheduler_add>
ffffffff80003a69:	48 89 ef             	mov    %rbp,%rdi
ffffffff80003a6c:	e8 4f 03 00 00       	call   ffffffff80003dc0 <scheduler_add>
ffffffff80003a71:	48 89 df             	mov    %rbx,%rdi
ffffffff80003a74:	e8 47 03 00 00       	call   ffffffff80003dc0 <scheduler_add>
ffffffff80003a79:	48 c7 c7 46 6c 00 80 	mov    $0xffffffff80006c46,%rdi
ffffffff80003a80:	e8 2b 1e 00 00       	call   ffffffff800058b0 <serial_write_line>
ffffffff80003a85:	bf 2f 00 00 00       	mov    $0x2f,%edi
ffffffff80003a8a:	e8 b1 19 00 00       	call   ffffffff80005440 <timer_init>
ffffffff80003a8f:	31 c0                	xor    %eax,%eax
ffffffff80003a91:	e8 5a 03 00 00       	call   ffffffff80003df0 <scheduler_run>
ffffffff80003a96:	48 c7 c7 54 6c 00 80 	mov    $0xffffffff80006c54,%rdi
ffffffff80003a9d:	e8 be 1d 00 00       	call   ffffffff80005860 <serial_write>
ffffffff80003aa2:	66 0f 1f 44 00 00    	nopw   0x0(%rax,%rax,1)
ffffffff80003aa8:	f4                   	hlt
ffffffff80003aa9:	eb fd                	jmp    ffffffff80003aa8 <kernel_main+0x2a8>
ffffffff80003aab:	0f 1f 44 00 00       	nopl   0x0(%rax,%rax,1)

ffffffff80003ab0 <idle>:
ffffffff80003ab0:	f3 0f 1e fa          	endbr64
ffffffff80003ab4:	0f 1f 40 00          	nopl   0x0(%rax)
ffffffff80003ab8:	f4                   	hlt
ffffffff80003ab9:	eb fd                	jmp    ffffffff80003ab8 <idle+0x8>
ffffffff80003abb:	0f 1f 44 00 00       	nopl   0x0(%rax,%rax,1)

ffffffff80003ac0 <user_task_bootstrap>:
ffffffff80003ac0:	f3 0f 1e fa          	endbr64
ffffffff80003ac4:	50                   	push   %rax
ffffffff80003ac5:	58                   	pop    %rax
ffffffff80003ac6:	48 c7 c7 69 6c 00 80 	mov    $0xffffffff80006c69,%rdi
ffffffff80003acd:	48 83 ec 08          	sub    $0x8,%rsp
ffffffff80003ad1:	e8 da 1d 00 00       	call   ffffffff800058b0 <serial_write_line>
ffffffff80003ad6:	48 8b 05 03 58 00 00 	mov    0x5803(%rip),%rax        # ffffffff800092e0 <g_current>
ffffffff80003add:	48 8b 78 48          	mov    0x48(%rax),%rdi
ffffffff80003ae1:	48 03 78 40          	add    0x40(%rax),%rdi
ffffffff80003ae5:	e8 26 14 00 00       	call   ffffffff80004f10 <gdt_set_kernel_stack>
ffffffff80003aea:	48 c7 c7 7e 6c 00 80 	mov    $0xffffffff80006c7e,%rdi
ffffffff80003af1:	e8 ba 1d 00 00       	call   ffffffff800058b0 <serial_write_line>
ffffffff80003af6:	48 8b 05 e3 57 00 00 	mov    0x57e3(%rip),%rax        # ffffffff800092e0 <g_current>
ffffffff80003afd:	48 8b 70 38          	mov    0x38(%rax),%rsi
ffffffff80003b01:	48 8b 78 20          	mov    0x20(%rax),%rdi
ffffffff80003b05:	e8 66 d1 ff ff       	call   ffffffff80000c70 <jump_to_userspace>
ffffffff80003b0a:	66 0f 1f 44 00 00    	nopw   0x0(%rax,%rax,1)

ffffffff80003b10 <schedule>:
ffffffff80003b10:	f3 0f 1e fa          	endbr64
ffffffff80003b14:	41 54                	push   %r12
ffffffff80003b16:	55                   	push   %rbp
ffffffff80003b17:	53                   	push   %rbx
ffffffff80003b18:	48 83 ec 10          	sub    $0x10,%rsp
ffffffff80003b1c:	48 8b 2d bd 57 00 00 	mov    0x57bd(%rip),%rbp        # ffffffff800092e0 <g_current>
ffffffff80003b23:	48 85 ed             	test   %rbp,%rbp
ffffffff80003b26:	0f 84 cc 00 00 00    	je     ffffffff80003bf8 <schedule+0xe8>
ffffffff80003b2c:	48 8b 5d 50          	mov    0x50(%rbp),%rbx
ffffffff80003b30:	48 39 dd             	cmp    %rbx,%rbp
ffffffff80003b33:	75 14                	jne    ffffffff80003b49 <schedule+0x39>
ffffffff80003b35:	eb 51                	jmp    ffffffff80003b88 <schedule+0x78>
ffffffff80003b37:	66 0f 1f 84 00 00 00 	nopw   0x0(%rax,%rax,1)
ffffffff80003b3e:	00 00 
ffffffff80003b40:	48 8b 5b 50          	mov    0x50(%rbx),%rbx
ffffffff80003b44:	48 39 dd             	cmp    %rbx,%rbp
ffffffff80003b47:	74 3f                	je     ffffffff80003b88 <schedule+0x78>
ffffffff80003b49:	8b 43 10             	mov    0x10(%rbx),%eax
ffffffff80003b4c:	85 c0                	test   %eax,%eax
ffffffff80003b4e:	75 f0                	jne    ffffffff80003b40 <schedule+0x30>
ffffffff80003b50:	83 7d 10 01          	cmpl   $0x1,0x10(%rbp)
ffffffff80003b54:	75 55                	jne    ffffffff80003bab <schedule+0x9b>
ffffffff80003b56:	48 8b 7b 18          	mov    0x18(%rbx),%rdi
ffffffff80003b5a:	48 89 1d 7f 57 00 00 	mov    %rbx,0x577f(%rip)        # ffffffff800092e0 <g_current>
ffffffff80003b61:	c7 45 10 00 00 00 00 	movl   $0x0,0x10(%rbp)
ffffffff80003b68:	c7 43 10 01 00 00 00 	movl   $0x1,0x10(%rbx)
ffffffff80003b6f:	48 85 ff             	test   %rdi,%rdi
ffffffff80003b72:	75 4e                	jne    ffffffff80003bc2 <schedule+0xb2>
ffffffff80003b74:	48 c7 c7 00 92 00 80 	mov    $0xffffffff80009200,%rdi
ffffffff80003b7b:	e8 d0 de ff ff       	call   ffffffff80001a50 <vmm_switch_address_space>
ffffffff80003b80:	eb 5c                	jmp    ffffffff80003bde <schedule+0xce>
ffffffff80003b82:	66 0f 1f 44 00 00    	nopw   0x0(%rax,%rax,1)
ffffffff80003b88:	83 7d 10 01          	cmpl   $0x1,0x10(%rbp)
ffffffff80003b8c:	0f 86 c8 00 00 00    	jbe    ffffffff80003c5a <schedule+0x14a>
ffffffff80003b92:	48 8b 1d 37 57 00 00 	mov    0x5737(%rip),%rbx        # ffffffff800092d0 <g_idle>
ffffffff80003b99:	48 85 db             	test   %rbx,%rbx
ffffffff80003b9c:	0f 84 b8 00 00 00    	je     ffffffff80003c5a <schedule+0x14a>
ffffffff80003ba2:	48 39 dd             	cmp    %rbx,%rbp
ffffffff80003ba5:	0f 84 af 00 00 00    	je     ffffffff80003c5a <schedule+0x14a>
ffffffff80003bab:	48 8b 7b 18          	mov    0x18(%rbx),%rdi
ffffffff80003baf:	48 89 1d 2a 57 00 00 	mov    %rbx,0x572a(%rip)        # ffffffff800092e0 <g_current>
ffffffff80003bb6:	c7 43 10 01 00 00 00 	movl   $0x1,0x10(%rbx)
ffffffff80003bbd:	48 85 ff             	test   %rdi,%rdi
ffffffff80003bc0:	74 b2                	je     ffffffff80003b74 <schedule+0x64>
ffffffff80003bc2:	e8 89 de ff ff       	call   ffffffff80001a50 <vmm_switch_address_space>
ffffffff80003bc7:	4c 8b 63 48          	mov    0x48(%rbx),%r12
ffffffff80003bcb:	4c 03 63 40          	add    0x40(%rbx),%r12
ffffffff80003bcf:	4c 89 e7             	mov    %r12,%rdi
ffffffff80003bd2:	e8 39 13 00 00       	call   ffffffff80004f10 <gdt_set_kernel_stack>
ffffffff80003bd7:	4c 89 25 22 70 00 00 	mov    %r12,0x7022(%rip)        # ffffffff8000ac00 <g_syscall_kernel_rsp>
ffffffff80003bde:	48 8b 73 30          	mov    0x30(%rbx),%rsi
ffffffff80003be2:	48 83 c4 10          	add    $0x10,%rsp
ffffffff80003be6:	48 8d 7d 30          	lea    0x30(%rbp),%rdi
ffffffff80003bea:	5b                   	pop    %rbx
ffffffff80003beb:	5d                   	pop    %rbp
ffffffff80003bec:	41 5c                	pop    %r12
ffffffff80003bee:	e9 1d c4 ff ff       	jmp    ffffffff80000010 <context_switch>
ffffffff80003bf3:	0f 1f 44 00 00       	nopl   0x0(%rax,%rax,1)
ffffffff80003bf8:	48 8b 1d d9 56 00 00 	mov    0x56d9(%rip),%rbx        # ffffffff800092d8 <g_task_list>
ffffffff80003bff:	48 85 db             	test   %rbx,%rbx
ffffffff80003c02:	74 56                	je     ffffffff80003c5a <schedule+0x14a>
ffffffff80003c04:	48 8b 7b 18          	mov    0x18(%rbx),%rdi
ffffffff80003c08:	48 89 1d d1 56 00 00 	mov    %rbx,0x56d1(%rip)        # ffffffff800092e0 <g_current>
ffffffff80003c0f:	c7 43 10 01 00 00 00 	movl   $0x1,0x10(%rbx)
ffffffff80003c16:	48 85 ff             	test   %rdi,%rdi
ffffffff80003c19:	74 48                	je     ffffffff80003c63 <schedule+0x153>
ffffffff80003c1b:	e8 30 de ff ff       	call   ffffffff80001a50 <vmm_switch_address_space>
ffffffff80003c20:	48 8b 6b 48          	mov    0x48(%rbx),%rbp
ffffffff80003c24:	48 03 6b 40          	add    0x40(%rbx),%rbp
ffffffff80003c28:	48 89 ef             	mov    %rbp,%rdi
ffffffff80003c2b:	e8 e0 12 00 00       	call   ffffffff80004f10 <gdt_set_kernel_stack>
ffffffff80003c30:	48 89 2d c9 6f 00 00 	mov    %rbp,0x6fc9(%rip)        # ffffffff8000ac00 <g_syscall_kernel_rsp>
ffffffff80003c37:	48 c7 44 24 08 00 00 	movq   $0x0,0x8(%rsp)
ffffffff80003c3e:	00 00 
ffffffff80003c40:	48 c7 c7 90 6c 00 80 	mov    $0xffffffff80006c90,%rdi
ffffffff80003c47:	e8 64 1c 00 00       	call   ffffffff800058b0 <serial_write_line>
ffffffff80003c4c:	48 8b 73 30          	mov    0x30(%rbx),%rsi
ffffffff80003c50:	48 8d 7c 24 08       	lea    0x8(%rsp),%rdi
ffffffff80003c55:	e8 b6 c3 ff ff       	call   ffffffff80000010 <context_switch>
ffffffff80003c5a:	48 83 c4 10          	add    $0x10,%rsp
ffffffff80003c5e:	5b                   	pop    %rbx
ffffffff80003c5f:	5d                   	pop    %rbp
ffffffff80003c60:	41 5c                	pop    %r12
ffffffff80003c62:	c3                   	ret
ffffffff80003c63:	48 c7 c7 00 92 00 80 	mov    $0xffffffff80009200,%rdi
ffffffff80003c6a:	e8 e1 dd ff ff       	call   ffffffff80001a50 <vmm_switch_address_space>
ffffffff80003c6f:	eb c6                	jmp    ffffffff80003c37 <schedule+0x127>
ffffffff80003c71:	66 66 2e 0f 1f 84 00 	data16 cs nopw 0x0(%rax,%rax,1)
ffffffff80003c78:	00 00 00 00 
ffffffff80003c7c:	0f 1f 40 00          	nopl   0x0(%rax)

ffffffff80003c80 <task_exit>:
ffffffff80003c80:	f3 0f 1e fa          	endbr64
ffffffff80003c84:	50                   	push   %rax
ffffffff80003c85:	58                   	pop    %rax
ffffffff80003c86:	48 83 ec 08          	sub    $0x8,%rsp
ffffffff80003c8a:	48 8b 05 4f 56 00 00 	mov    0x564f(%rip),%rax        # ffffffff800092e0 <g_current>
ffffffff80003c91:	c7 40 10 03 00 00 00 	movl   $0x3,0x10(%rax)
ffffffff80003c98:	31 c0                	xor    %eax,%eax
ffffffff80003c9a:	e8 71 fe ff ff       	call   ffffffff80003b10 <schedule>
ffffffff80003c9f:	48 c7 c7 a5 6c 00 80 	mov    $0xffffffff80006ca5,%rdi
ffffffff80003ca6:	e8 95 f5 ff ff       	call   ffffffff80003240 <panic>
ffffffff80003cab:	0f 1f 44 00 00       	nopl   0x0(%rax,%rax,1)

ffffffff80003cb0 <task_bootstrap>:
ffffffff80003cb0:	f3 0f 1e fa          	endbr64
ffffffff80003cb4:	50                   	push   %rax
ffffffff80003cb5:	58                   	pop    %rax
ffffffff80003cb6:	48 83 ec 08          	sub    $0x8,%rsp
ffffffff80003cba:	48 8b 05 1f 56 00 00 	mov    0x561f(%rip),%rax        # ffffffff800092e0 <g_current>
ffffffff80003cc1:	48 8b 78 28          	mov    0x28(%rax),%rdi
ffffffff80003cc5:	ff 50 20             	call   *0x20(%rax)
ffffffff80003cc8:	e8 b3 ff ff ff       	call   ffffffff80003c80 <task_exit>
ffffffff80003ccd:	0f 1f 00             	nopl   (%rax)

ffffffff80003cd0 <scheduler_init>:
ffffffff80003cd0:	f3 0f 1e fa          	endbr64
ffffffff80003cd4:	55                   	push   %rbp
ffffffff80003cd5:	bf 58 00 00 00       	mov    $0x58,%edi
ffffffff80003cda:	53                   	push   %rbx
ffffffff80003cdb:	48 83 ec 08          	sub    $0x8,%rsp
ffffffff80003cdf:	e8 9c e3 ff ff       	call   ffffffff80002080 <kmalloc>
ffffffff80003ce4:	48 85 c0             	test   %rax,%rax
ffffffff80003ce7:	0f 84 cb 00 00 00    	je     ffffffff80003db8 <scheduler_init+0xe8>
ffffffff80003ced:	48 89 c7             	mov    %rax,%rdi
ffffffff80003cf0:	ba 58 00 00 00       	mov    $0x58,%edx
ffffffff80003cf5:	31 f6                	xor    %esi,%esi
ffffffff80003cf7:	48 89 c3             	mov    %rax,%rbx
ffffffff80003cfa:	e8 d1 e5 ff ff       	call   ffffffff800022d0 <memset8>
ffffffff80003cff:	bf 00 10 00 00       	mov    $0x1000,%edi
ffffffff80003d04:	e8 77 e3 ff ff       	call   ffffffff80002080 <kmalloc>
ffffffff80003d09:	48 89 c5             	mov    %rax,%rbp
ffffffff80003d0c:	48 85 c0             	test   %rax,%rax
ffffffff80003d0f:	0f 84 9b 00 00 00    	je     ffffffff80003db0 <scheduler_init+0xe0>
ffffffff80003d15:	ba 00 10 00 00       	mov    $0x1000,%edx
ffffffff80003d1a:	48 89 c7             	mov    %rax,%rdi
ffffffff80003d1d:	31 f6                	xor    %esi,%esi
ffffffff80003d1f:	e8 ac e5 ff ff       	call   ffffffff800022d0 <memset8>
ffffffff80003d24:	8b 05 e2 42 00 00    	mov    0x42e2(%rip),%eax        # ffffffff8000800c <g_next_pid>
ffffffff80003d2a:	66 0f ef c0          	pxor   %xmm0,%xmm0
ffffffff80003d2e:	48 89 6b 40          	mov    %rbp,0x40(%rbx)
ffffffff80003d32:	48 c7 43 48 00 10 00 	movq   $0x1000,0x48(%rbx)
ffffffff80003d39:	00 
ffffffff80003d3a:	89 03                	mov    %eax,(%rbx)
ffffffff80003d3c:	8d 50 01             	lea    0x1(%rax),%edx
ffffffff80003d3f:	48 8d 85 00 10 00 00 	lea    0x1000(%rbp),%rax
ffffffff80003d46:	48 83 e0 f0          	and    $0xfffffffffffffff0,%rax
ffffffff80003d4a:	48 c7 43 50 00 00 00 	movq   $0x0,0x50(%rbx)
ffffffff80003d51:	00 
ffffffff80003d52:	c7 43 10 00 00 00 00 	movl   $0x0,0x10(%rbx)
ffffffff80003d59:	48 83 e8 38          	sub    $0x38,%rax
ffffffff80003d5d:	48 c7 43 08 b8 6c 00 	movq   $0xffffffff80006cb8,0x8(%rbx)
ffffffff80003d64:	80 
ffffffff80003d65:	48 c7 43 20 b0 3a 00 	movq   $0xffffffff80003ab0,0x20(%rbx)
ffffffff80003d6c:	80 
ffffffff80003d6d:	48 c7 43 28 00 00 00 	movq   $0x0,0x28(%rbx)
ffffffff80003d74:	00 
ffffffff80003d75:	48 c7 43 18 00 00 00 	movq   $0x0,0x18(%rbx)
ffffffff80003d7c:	00 
ffffffff80003d7d:	89 15 89 42 00 00    	mov    %edx,0x4289(%rip)        # ffffffff8000800c <g_next_pid>
ffffffff80003d83:	48 c7 40 30 b0 3c 00 	movq   $0xffffffff80003cb0,0x30(%rax)
ffffffff80003d8a:	80 
ffffffff80003d8b:	0f 11 00             	movups %xmm0,(%rax)
ffffffff80003d8e:	0f 11 40 10          	movups %xmm0,0x10(%rax)
ffffffff80003d92:	0f 11 40 20          	movups %xmm0,0x20(%rax)
ffffffff80003d96:	48 89 43 30          	mov    %rax,0x30(%rbx)
ffffffff80003d9a:	48 89 1d 2f 55 00 00 	mov    %rbx,0x552f(%rip)        # ffffffff800092d0 <g_idle>
ffffffff80003da1:	48 83 c4 08          	add    $0x8,%rsp
ffffffff80003da5:	5b                   	pop    %rbx
ffffffff80003da6:	5d                   	pop    %rbp
ffffffff80003da7:	c3                   	ret
ffffffff80003da8:	0f 1f 84 00 00 00 00 	nopl   0x0(%rax,%rax,1)
ffffffff80003daf:	00 
ffffffff80003db0:	48 89 df             	mov    %rbx,%rdi
ffffffff80003db3:	e8 88 e4 ff ff       	call   ffffffff80002240 <kfree>
ffffffff80003db8:	31 db                	xor    %ebx,%ebx
ffffffff80003dba:	eb de                	jmp    ffffffff80003d9a <scheduler_init+0xca>
ffffffff80003dbc:	0f 1f 40 00          	nopl   0x0(%rax)

ffffffff80003dc0 <scheduler_add>:
ffffffff80003dc0:	f3 0f 1e fa          	endbr64
ffffffff80003dc4:	48 8b 05 0d 55 00 00 	mov    0x550d(%rip),%rax        # ffffffff800092d8 <g_task_list>
ffffffff80003dcb:	48 85 c0             	test   %rax,%rax
ffffffff80003dce:	74 10                	je     ffffffff80003de0 <scheduler_add+0x20>
ffffffff80003dd0:	48 8b 50 50          	mov    0x50(%rax),%rdx
ffffffff80003dd4:	48 89 57 50          	mov    %rdx,0x50(%rdi)
ffffffff80003dd8:	48 89 78 50          	mov    %rdi,0x50(%rax)
ffffffff80003ddc:	c3                   	ret
ffffffff80003ddd:	0f 1f 00             	nopl   (%rax)
ffffffff80003de0:	48 89 3d f1 54 00 00 	mov    %rdi,0x54f1(%rip)        # ffffffff800092d8 <g_task_list>
ffffffff80003de7:	48 89 7f 50          	mov    %rdi,0x50(%rdi)
ffffffff80003deb:	c3                   	ret
ffffffff80003dec:	0f 1f 40 00          	nopl   0x0(%rax)

ffffffff80003df0 <scheduler_run>:
ffffffff80003df0:	f3 0f 1e fa          	endbr64
ffffffff80003df4:	50                   	push   %rax
ffffffff80003df5:	58                   	pop    %rax
ffffffff80003df6:	31 c0                	xor    %eax,%eax
ffffffff80003df8:	48 83 ec 08          	sub    $0x8,%rsp
ffffffff80003dfc:	e8 0f fd ff ff       	call   ffffffff80003b10 <schedule>
ffffffff80003e01:	48 c7 c7 bd 6c 00 80 	mov    $0xffffffff80006cbd,%rdi
ffffffff80003e08:	e8 33 f4 ff ff       	call   ffffffff80003240 <panic>
ffffffff80003e0d:	0f 1f 00             	nopl   (%rax)

ffffffff80003e10 <task_create_kernel>:
ffffffff80003e10:	f3 0f 1e fa          	endbr64
ffffffff80003e14:	41 56                	push   %r14
ffffffff80003e16:	49 89 d6             	mov    %rdx,%r14
ffffffff80003e19:	41 55                	push   %r13
ffffffff80003e1b:	49 89 fd             	mov    %rdi,%r13
ffffffff80003e1e:	bf 58 00 00 00       	mov    $0x58,%edi
ffffffff80003e23:	41 54                	push   %r12
ffffffff80003e25:	49 89 f4             	mov    %rsi,%r12
ffffffff80003e28:	55                   	push   %rbp
ffffffff80003e29:	53                   	push   %rbx
ffffffff80003e2a:	e8 51 e2 ff ff       	call   ffffffff80002080 <kmalloc>
ffffffff80003e2f:	48 85 c0             	test   %rax,%rax
ffffffff80003e32:	0f 84 b8 00 00 00    	je     ffffffff80003ef0 <task_create_kernel+0xe0>
ffffffff80003e38:	48 89 c7             	mov    %rax,%rdi
ffffffff80003e3b:	ba 58 00 00 00       	mov    $0x58,%edx
ffffffff80003e40:	31 f6                	xor    %esi,%esi
ffffffff80003e42:	48 89 c3             	mov    %rax,%rbx
ffffffff80003e45:	e8 86 e4 ff ff       	call   ffffffff800022d0 <memset8>
ffffffff80003e4a:	bf 00 10 00 00       	mov    $0x1000,%edi
ffffffff80003e4f:	e8 2c e2 ff ff       	call   ffffffff80002080 <kmalloc>
ffffffff80003e54:	48 89 c5             	mov    %rax,%rbp
ffffffff80003e57:	48 85 c0             	test   %rax,%rax
ffffffff80003e5a:	0f 84 88 00 00 00    	je     ffffffff80003ee8 <task_create_kernel+0xd8>
ffffffff80003e60:	ba 00 10 00 00       	mov    $0x1000,%edx
ffffffff80003e65:	48 89 c7             	mov    %rax,%rdi
ffffffff80003e68:	31 f6                	xor    %esi,%esi
ffffffff80003e6a:	e8 61 e4 ff ff       	call   ffffffff800022d0 <memset8>
ffffffff80003e6f:	8b 05 97 41 00 00    	mov    0x4197(%rip),%eax        # ffffffff8000800c <g_next_pid>
ffffffff80003e75:	66 0f ef c0          	pxor   %xmm0,%xmm0
ffffffff80003e79:	48 89 6b 40          	mov    %rbp,0x40(%rbx)
ffffffff80003e7d:	48 c7 43 48 00 10 00 	movq   $0x1000,0x48(%rbx)
ffffffff80003e84:	00 
ffffffff80003e85:	89 03                	mov    %eax,(%rbx)
ffffffff80003e87:	8d 50 01             	lea    0x1(%rax),%edx
ffffffff80003e8a:	48 8d 85 00 10 00 00 	lea    0x1000(%rbp),%rax
ffffffff80003e91:	48 83 e0 f0          	and    $0xfffffffffffffff0,%rax
ffffffff80003e95:	48 c7 43 50 00 00 00 	movq   $0x0,0x50(%rbx)
ffffffff80003e9c:	00 
ffffffff80003e9d:	c7 43 10 00 00 00 00 	movl   $0x0,0x10(%rbx)
ffffffff80003ea4:	48 83 e8 38          	sub    $0x38,%rax
ffffffff80003ea8:	4c 89 73 08          	mov    %r14,0x8(%rbx)
ffffffff80003eac:	4c 89 6b 20          	mov    %r13,0x20(%rbx)
ffffffff80003eb0:	4c 89 63 28          	mov    %r12,0x28(%rbx)
ffffffff80003eb4:	48 c7 43 18 00 00 00 	movq   $0x0,0x18(%rbx)
ffffffff80003ebb:	00 
ffffffff80003ebc:	89 15 4a 41 00 00    	mov    %edx,0x414a(%rip)        # ffffffff8000800c <g_next_pid>
ffffffff80003ec2:	48 c7 40 30 b0 3c 00 	movq   $0xffffffff80003cb0,0x30(%rax)
ffffffff80003ec9:	80 
ffffffff80003eca:	0f 11 00             	movups %xmm0,(%rax)
ffffffff80003ecd:	0f 11 40 10          	movups %xmm0,0x10(%rax)
ffffffff80003ed1:	0f 11 40 20          	movups %xmm0,0x20(%rax)
ffffffff80003ed5:	48 89 43 30          	mov    %rax,0x30(%rbx)
ffffffff80003ed9:	48 89 d8             	mov    %rbx,%rax
ffffffff80003edc:	5b                   	pop    %rbx
ffffffff80003edd:	5d                   	pop    %rbp
ffffffff80003ede:	41 5c                	pop    %r12
ffffffff80003ee0:	41 5d                	pop    %r13
ffffffff80003ee2:	41 5e                	pop    %r14
ffffffff80003ee4:	c3                   	ret
ffffffff80003ee5:	0f 1f 00             	nopl   (%rax)
ffffffff80003ee8:	48 89 df             	mov    %rbx,%rdi
ffffffff80003eeb:	e8 50 e3 ff ff       	call   ffffffff80002240 <kfree>
ffffffff80003ef0:	31 db                	xor    %ebx,%ebx
ffffffff80003ef2:	eb e5                	jmp    ffffffff80003ed9 <task_create_kernel+0xc9>
ffffffff80003ef4:	66 66 2e 0f 1f 84 00 	data16 cs nopw 0x0(%rax,%rax,1)
ffffffff80003efb:	00 00 00 00 
ffffffff80003eff:	90                   	nop

ffffffff80003f00 <task_create_user>:
ffffffff80003f00:	f3 0f 1e fa          	endbr64
ffffffff80003f04:	41 57                	push   %r15
ffffffff80003f06:	49 89 d7             	mov    %rdx,%r15
ffffffff80003f09:	41 56                	push   %r14
ffffffff80003f0b:	49 89 fe             	mov    %rdi,%r14
ffffffff80003f0e:	41 55                	push   %r13
ffffffff80003f10:	49 89 f5             	mov    %rsi,%r13
ffffffff80003f13:	41 54                	push   %r12
ffffffff80003f15:	55                   	push   %rbp
ffffffff80003f16:	53                   	push   %rbx
ffffffff80003f17:	48 83 ec 08          	sub    $0x8,%rsp
ffffffff80003f1b:	e8 80 da ff ff       	call   ffffffff800019a0 <vmm_create_address_space>
ffffffff80003f20:	bf 58 00 00 00       	mov    $0x58,%edi
ffffffff80003f25:	49 89 c4             	mov    %rax,%r12
ffffffff80003f28:	e8 53 e1 ff ff       	call   ffffffff80002080 <kmalloc>
ffffffff80003f2d:	48 85 c0             	test   %rax,%rax
ffffffff80003f30:	0f 84 fb 00 00 00    	je     ffffffff80004031 <task_create_user+0x131>
ffffffff80003f36:	48 89 c7             	mov    %rax,%rdi
ffffffff80003f39:	ba 58 00 00 00       	mov    $0x58,%edx
ffffffff80003f3e:	31 f6                	xor    %esi,%esi
ffffffff80003f40:	48 89 c3             	mov    %rax,%rbx
ffffffff80003f43:	e8 88 e3 ff ff       	call   ffffffff800022d0 <memset8>
ffffffff80003f48:	bf 00 10 00 00       	mov    $0x1000,%edi
ffffffff80003f4d:	e8 2e e1 ff ff       	call   ffffffff80002080 <kmalloc>
ffffffff80003f52:	48 89 c5             	mov    %rax,%rbp
ffffffff80003f55:	48 85 c0             	test   %rax,%rax
ffffffff80003f58:	0f 84 cb 00 00 00    	je     ffffffff80004029 <task_create_user+0x129>
ffffffff80003f5e:	31 f6                	xor    %esi,%esi
ffffffff80003f60:	48 89 c7             	mov    %rax,%rdi
ffffffff80003f63:	ba 00 10 00 00       	mov    $0x1000,%edx
ffffffff80003f68:	e8 63 e3 ff ff       	call   ffffffff800022d0 <memset8>
ffffffff80003f6d:	8b 05 99 40 00 00    	mov    0x4099(%rip),%eax        # ffffffff8000800c <g_next_pid>
ffffffff80003f73:	66 0f ef c0          	pxor   %xmm0,%xmm0
ffffffff80003f77:	48 89 6b 40          	mov    %rbp,0x40(%rbx)
ffffffff80003f7b:	4c 89 7b 08          	mov    %r15,0x8(%rbx)
ffffffff80003f7f:	bf 04 00 00 00       	mov    $0x4,%edi
ffffffff80003f84:	89 03                	mov    %eax,(%rbx)
ffffffff80003f86:	8d 50 01             	lea    0x1(%rax),%edx
ffffffff80003f89:	48 8d 85 00 10 00 00 	lea    0x1000(%rbp),%rax
ffffffff80003f90:	48 83 e0 f0          	and    $0xfffffffffffffff0,%rax
ffffffff80003f94:	4c 89 73 20          	mov    %r14,0x20(%rbx)
ffffffff80003f98:	4c 89 6b 28          	mov    %r13,0x28(%rbx)
ffffffff80003f9c:	48 83 e8 38          	sub    $0x38,%rax
ffffffff80003fa0:	4c 89 63 18          	mov    %r12,0x18(%rbx)
ffffffff80003fa4:	48 c7 43 48 00 10 00 	movq   $0x1000,0x48(%rbx)
ffffffff80003fab:	00 
ffffffff80003fac:	48 c7 43 50 00 00 00 	movq   $0x0,0x50(%rbx)
ffffffff80003fb3:	00 
ffffffff80003fb4:	c7 43 10 00 00 00 00 	movl   $0x0,0x10(%rbx)
ffffffff80003fbb:	0f 11 00             	movups %xmm0,(%rax)
ffffffff80003fbe:	0f 11 40 10          	movups %xmm0,0x10(%rax)
ffffffff80003fc2:	0f 11 40 20          	movups %xmm0,0x20(%rax)
ffffffff80003fc6:	48 c7 40 30 b0 3c 00 	movq   $0xffffffff80003cb0,0x30(%rax)
ffffffff80003fcd:	80 
ffffffff80003fce:	48 89 43 30          	mov    %rax,0x30(%rbx)
ffffffff80003fd2:	89 15 34 40 00 00    	mov    %edx,0x4034(%rip)        # ffffffff8000800c <g_next_pid>
ffffffff80003fd8:	e8 d3 e9 ff ff       	call   ffffffff800029b0 <pmm_alloc_pages>
ffffffff80003fdd:	4c 89 e7             	mov    %r12,%rdi
ffffffff80003fe0:	41 b8 07 00 00 00    	mov    $0x7,%r8d
ffffffff80003fe6:	b9 04 00 00 00       	mov    $0x4,%ecx
ffffffff80003feb:	48 be 00 b0 ff ff ff 	movabs $0x7fffffffb000,%rsi
ffffffff80003ff2:	7f 00 00 
ffffffff80003ff5:	48 89 c2             	mov    %rax,%rdx
ffffffff80003ff8:	e8 a3 d8 ff ff       	call   ffffffff800018a0 <vmm_map_pages>
ffffffff80003ffd:	48 b8 00 f0 ff ff ff 	movabs $0x7ffffffff000,%rax
ffffffff80004004:	7f 00 00 
ffffffff80004007:	48 89 43 38          	mov    %rax,0x38(%rbx)
ffffffff8000400b:	48 8b 43 30          	mov    0x30(%rbx),%rax
ffffffff8000400f:	48 c7 40 30 c0 3a 00 	movq   $0xffffffff80003ac0,0x30(%rax)
ffffffff80004016:	80 
ffffffff80004017:	48 83 c4 08          	add    $0x8,%rsp
ffffffff8000401b:	48 89 d8             	mov    %rbx,%rax
ffffffff8000401e:	5b                   	pop    %rbx
ffffffff8000401f:	5d                   	pop    %rbp
ffffffff80004020:	41 5c                	pop    %r12
ffffffff80004022:	41 5d                	pop    %r13
ffffffff80004024:	41 5e                	pop    %r14
ffffffff80004026:	41 5f                	pop    %r15
ffffffff80004028:	c3                   	ret
ffffffff80004029:	48 89 df             	mov    %rbx,%rdi
ffffffff8000402c:	e8 0f e2 ff ff       	call   ffffffff80002240 <kfree>
ffffffff80004031:	bf 04 00 00 00       	mov    $0x4,%edi
ffffffff80004036:	e8 75 e9 ff ff       	call   ffffffff800029b0 <pmm_alloc_pages>
ffffffff8000403b:	41 b8 07 00 00 00    	mov    $0x7,%r8d
ffffffff80004041:	b9 04 00 00 00       	mov    $0x4,%ecx
ffffffff80004046:	4c 89 e7             	mov    %r12,%rdi
ffffffff80004049:	48 be 00 b0 ff ff ff 	movabs $0x7fffffffb000,%rsi
ffffffff80004050:	7f 00 00 
ffffffff80004053:	48 89 c2             	mov    %rax,%rdx
ffffffff80004056:	e8 45 d8 ff ff       	call   ffffffff800018a0 <vmm_map_pages>
ffffffff8000405b:	48 b8 00 f0 ff ff ff 	movabs $0x7ffffffff000,%rax
ffffffff80004062:	7f 00 00 
ffffffff80004065:	48 89 04 25 38 00 00 	mov    %rax,0x38
ffffffff8000406c:	00 
ffffffff8000406d:	0f 0b                	ud2
ffffffff8000406f:	90                   	nop

ffffffff80004070 <task_create_user_from_space>:
ffffffff80004070:	f3 0f 1e fa          	endbr64
ffffffff80004074:	41 55                	push   %r13
ffffffff80004076:	49 89 f5             	mov    %rsi,%r13
ffffffff80004079:	41 54                	push   %r12
ffffffff8000407b:	49 89 fc             	mov    %rdi,%r12
ffffffff8000407e:	bf 58 00 00 00       	mov    $0x58,%edi
ffffffff80004083:	55                   	push   %rbp
ffffffff80004084:	53                   	push   %rbx
ffffffff80004085:	48 83 ec 08          	sub    $0x8,%rsp
ffffffff80004089:	e8 f2 df ff ff       	call   ffffffff80002080 <kmalloc>
ffffffff8000408e:	48 85 c0             	test   %rax,%rax
ffffffff80004091:	0f 84 ff 00 00 00    	je     ffffffff80004196 <task_create_user_from_space+0x126>
ffffffff80004097:	48 89 c7             	mov    %rax,%rdi
ffffffff8000409a:	ba 58 00 00 00       	mov    $0x58,%edx
ffffffff8000409f:	31 f6                	xor    %esi,%esi
ffffffff800040a1:	48 89 c3             	mov    %rax,%rbx
ffffffff800040a4:	e8 27 e2 ff ff       	call   ffffffff800022d0 <memset8>
ffffffff800040a9:	bf 00 10 00 00       	mov    $0x1000,%edi
ffffffff800040ae:	e8 cd df ff ff       	call   ffffffff80002080 <kmalloc>
ffffffff800040b3:	48 89 c5             	mov    %rax,%rbp
ffffffff800040b6:	48 85 c0             	test   %rax,%rax
ffffffff800040b9:	0f 84 cf 00 00 00    	je     ffffffff8000418e <task_create_user_from_space+0x11e>
ffffffff800040bf:	31 f6                	xor    %esi,%esi
ffffffff800040c1:	48 89 c7             	mov    %rax,%rdi
ffffffff800040c4:	ba 00 10 00 00       	mov    $0x1000,%edx
ffffffff800040c9:	e8 02 e2 ff ff       	call   ffffffff800022d0 <memset8>
ffffffff800040ce:	8b 05 38 3f 00 00    	mov    0x3f38(%rip),%eax        # ffffffff8000800c <g_next_pid>
ffffffff800040d4:	66 0f ef c0          	pxor   %xmm0,%xmm0
ffffffff800040d8:	48 89 6b 40          	mov    %rbp,0x40(%rbx)
ffffffff800040dc:	4c 89 6b 20          	mov    %r13,0x20(%rbx)
ffffffff800040e0:	bf 04 00 00 00       	mov    $0x4,%edi
ffffffff800040e5:	89 03                	mov    %eax,(%rbx)
ffffffff800040e7:	8d 50 01             	lea    0x1(%rax),%edx
ffffffff800040ea:	48 8d 85 00 10 00 00 	lea    0x1000(%rbp),%rax
ffffffff800040f1:	48 83 e0 f0          	and    $0xfffffffffffffff0,%rax
ffffffff800040f5:	4c 89 63 18          	mov    %r12,0x18(%rbx)
ffffffff800040f9:	48 c7 43 48 00 10 00 	movq   $0x1000,0x48(%rbx)
ffffffff80004100:	00 
ffffffff80004101:	48 83 e8 38          	sub    $0x38,%rax
ffffffff80004105:	48 c7 43 50 00 00 00 	movq   $0x0,0x50(%rbx)
ffffffff8000410c:	00 
ffffffff8000410d:	c7 43 10 00 00 00 00 	movl   $0x0,0x10(%rbx)
ffffffff80004114:	48 c7 43 08 d7 6c 00 	movq   $0xffffffff80006cd7,0x8(%rbx)
ffffffff8000411b:	80 
ffffffff8000411c:	48 c7 43 28 00 00 00 	movq   $0x0,0x28(%rbx)
ffffffff80004123:	00 
ffffffff80004124:	0f 11 00             	movups %xmm0,(%rax)
ffffffff80004127:	0f 11 40 10          	movups %xmm0,0x10(%rax)
ffffffff8000412b:	0f 11 40 20          	movups %xmm0,0x20(%rax)
ffffffff8000412f:	48 c7 40 30 b0 3c 00 	movq   $0xffffffff80003cb0,0x30(%rax)
ffffffff80004136:	80 
ffffffff80004137:	48 89 43 30          	mov    %rax,0x30(%rbx)
ffffffff8000413b:	89 15 cb 3e 00 00    	mov    %edx,0x3ecb(%rip)        # ffffffff8000800c <g_next_pid>
ffffffff80004141:	e8 6a e8 ff ff       	call   ffffffff800029b0 <pmm_alloc_pages>
ffffffff80004146:	4c 89 e7             	mov    %r12,%rdi
ffffffff80004149:	41 b8 07 00 00 00    	mov    $0x7,%r8d
ffffffff8000414f:	b9 04 00 00 00       	mov    $0x4,%ecx
ffffffff80004154:	48 be 00 b0 ff ff ff 	movabs $0x7fffffffb000,%rsi
ffffffff8000415b:	7f 00 00 
ffffffff8000415e:	48 89 c2             	mov    %rax,%rdx
ffffffff80004161:	e8 3a d7 ff ff       	call   ffffffff800018a0 <vmm_map_pages>
ffffffff80004166:	48 b8 00 f0 ff ff ff 	movabs $0x7ffffffff000,%rax
ffffffff8000416d:	7f 00 00 
ffffffff80004170:	48 89 43 38          	mov    %rax,0x38(%rbx)
ffffffff80004174:	48 8b 43 30          	mov    0x30(%rbx),%rax
ffffffff80004178:	48 c7 40 30 c0 3a 00 	movq   $0xffffffff80003ac0,0x30(%rax)
ffffffff8000417f:	80 
ffffffff80004180:	48 83 c4 08          	add    $0x8,%rsp
ffffffff80004184:	48 89 d8             	mov    %rbx,%rax
ffffffff80004187:	5b                   	pop    %rbx
ffffffff80004188:	5d                   	pop    %rbp
ffffffff80004189:	41 5c                	pop    %r12
ffffffff8000418b:	41 5d                	pop    %r13
ffffffff8000418d:	c3                   	ret
ffffffff8000418e:	48 89 df             	mov    %rbx,%rdi
ffffffff80004191:	e8 aa e0 ff ff       	call   ffffffff80002240 <kfree>
ffffffff80004196:	bf 04 00 00 00       	mov    $0x4,%edi
ffffffff8000419b:	e8 10 e8 ff ff       	call   ffffffff800029b0 <pmm_alloc_pages>
ffffffff800041a0:	41 b8 07 00 00 00    	mov    $0x7,%r8d
ffffffff800041a6:	b9 04 00 00 00       	mov    $0x4,%ecx
ffffffff800041ab:	4c 89 e7             	mov    %r12,%rdi
ffffffff800041ae:	48 be 00 b0 ff ff ff 	movabs $0x7fffffffb000,%rsi
ffffffff800041b5:	7f 00 00 
ffffffff800041b8:	48 89 c2             	mov    %rax,%rdx
ffffffff800041bb:	e8 e0 d6 ff ff       	call   ffffffff800018a0 <vmm_map_pages>
ffffffff800041c0:	48 b8 00 f0 ff ff ff 	movabs $0x7ffffffff000,%rax
ffffffff800041c7:	7f 00 00 
ffffffff800041ca:	48 89 04 25 38 00 00 	mov    %rax,0x38
ffffffff800041d1:	00 
ffffffff800041d2:	0f 0b                	ud2
ffffffff800041d4:	66 2e 0f 1f 84 00 00 	cs nopw 0x0(%rax,%rax,1)
ffffffff800041db:	00 00 00 
ffffffff800041de:	66 90                	xchg   %ax,%ax

ffffffff800041e0 <register_default_handler>:
ffffffff800041e0:	f3 0f 1e fa          	endbr64
ffffffff800041e4:	48 89 3d 35 61 00 00 	mov    %rdi,0x6135(%rip)        # ffffffff8000a320 <g_default_handler>
ffffffff800041eb:	c3                   	ret
ffffffff800041ec:	0f 1f 40 00          	nopl   0x0(%rax)

ffffffff800041f0 <register_interrupt_handler>:
ffffffff800041f0:	f3 0f 1e fa          	endbr64
ffffffff800041f4:	48 63 ff             	movslq %edi,%rdi
ffffffff800041f7:	48 89 34 fd 40 a3 00 	mov    %rsi,-0x7fff5cc0(,%rdi,8)
ffffffff800041fe:	80 
ffffffff800041ff:	c3                   	ret

ffffffff80004200 <interrupt_dispatch>:
ffffffff80004200:	f3 0f 1e fa          	endbr64
ffffffff80004204:	53                   	push   %rbx
ffffffff80004205:	48 89 fb             	mov    %rdi,%rbx
ffffffff80004208:	48 8b 7f 78          	mov    0x78(%rdi),%rdi
ffffffff8000420c:	48 8d 47 e0          	lea    -0x20(%rdi),%rax
ffffffff80004210:	48 83 f8 0f          	cmp    $0xf,%rax
ffffffff80004214:	76 1a                	jbe    ffffffff80004230 <interrupt_dispatch+0x30>
ffffffff80004216:	48 8b 04 fd 40 a3 00 	mov    -0x7fff5cc0(,%rdi,8),%rax
ffffffff8000421d:	80 
ffffffff8000421e:	48 85 c0             	test   %rax,%rax
ffffffff80004221:	74 2a                	je     ffffffff8000424d <interrupt_dispatch+0x4d>
ffffffff80004223:	48 89 df             	mov    %rbx,%rdi
ffffffff80004226:	5b                   	pop    %rbx
ffffffff80004227:	ff e0                	jmp    *%rax
ffffffff80004229:	0f 1f 80 00 00 00 00 	nopl   0x0(%rax)
ffffffff80004230:	83 ef 20             	sub    $0x20,%edi
ffffffff80004233:	40 0f b6 ff          	movzbl %dil,%edi
ffffffff80004237:	e8 d4 14 00 00       	call   ffffffff80005710 <pic_send_eoi>
ffffffff8000423c:	48 8b 7b 78          	mov    0x78(%rbx),%rdi
ffffffff80004240:	48 8b 04 fd 40 a3 00 	mov    -0x7fff5cc0(,%rdi,8),%rax
ffffffff80004247:	80 
ffffffff80004248:	48 85 c0             	test   %rax,%rax
ffffffff8000424b:	75 d6                	jne    ffffffff80004223 <interrupt_dispatch+0x23>
ffffffff8000424d:	48 8b 05 cc 60 00 00 	mov    0x60cc(%rip),%rax        # ffffffff8000a320 <g_default_handler>
ffffffff80004254:	48 85 c0             	test   %rax,%rax
ffffffff80004257:	75 ca                	jne    ffffffff80004223 <interrupt_dispatch+0x23>
ffffffff80004259:	48 c7 c7 dc 6c 00 80 	mov    $0xffffffff80006cdc,%rdi
ffffffff80004260:	5b                   	pop    %rbx
ffffffff80004261:	e9 4a 16 00 00       	jmp    ffffffff800058b0 <serial_write_line>
ffffffff80004266:	66 2e 0f 1f 84 00 00 	cs nopw 0x0(%rax,%rax,1)
ffffffff8000426d:	00 00 00 

ffffffff80004270 <idt_init>:
ffffffff80004270:	f3 0f 1e fa          	endbr64
ffffffff80004274:	66 8c ce             	mov    %cs,%si
ffffffff80004277:	48 c7 c0 20 93 00 80 	mov    $0xffffffff80009320,%rax
ffffffff8000427e:	48 c7 c1 20 a3 00 80 	mov    $0xffffffff8000a320,%rcx
ffffffff80004285:	0f 1f 00             	nopl   (%rax)
ffffffff80004288:	31 d2                	xor    %edx,%edx
ffffffff8000428a:	66 89 10             	mov    %dx,(%rax)
ffffffff8000428d:	66 8c ca             	mov    %cs,%dx
ffffffff80004290:	31 ff                	xor    %edi,%edi
ffffffff80004292:	45 31 c0             	xor    %r8d,%r8d
ffffffff80004295:	66 89 50 02          	mov    %dx,0x2(%rax)
ffffffff80004299:	48 83 c0 10          	add    $0x10,%rax
ffffffff8000429d:	66 89 78 f4          	mov    %di,-0xc(%rax)
ffffffff800042a1:	66 44 89 40 f6       	mov    %r8w,-0xa(%rax)
ffffffff800042a6:	48 c7 40 f8 00 00 00 	movq   $0x0,-0x8(%rax)
ffffffff800042ad:	00 
ffffffff800042ae:	48 39 c1             	cmp    %rax,%rcx
ffffffff800042b1:	75 d5                	jne    ffffffff80004288 <idt_init+0x18>
ffffffff800042b3:	48 c7 c2 30 00 00 80 	mov    $0xffffffff80000030,%rdx
ffffffff800042ba:	66 89 15 5f 50 00 00 	mov    %dx,0x505f(%rip)        # ffffffff80009320 <idt>
ffffffff800042c1:	66 8c c8             	mov    %cs,%ax
ffffffff800042c4:	66 89 05 57 50 00 00 	mov    %ax,0x5057(%rip)        # ffffffff80009322 <idt+0x2>
ffffffff800042cb:	48 89 d1             	mov    %rdx,%rcx
ffffffff800042ce:	0f b7 05 7b 2f 00 00 	movzwl 0x2f7b(%rip),%eax        # ffffffff80007250 <CSWTCH.3+0xa90>
ffffffff800042d5:	48 c1 ea 20          	shr    $0x20,%rdx
ffffffff800042d9:	89 15 49 50 00 00    	mov    %edx,0x5049(%rip)        # ffffffff80009328 <idt+0x8>
ffffffff800042df:	48 c1 e9 10          	shr    $0x10,%rcx
ffffffff800042e3:	48 c7 c2 70 00 00 80 	mov    $0xffffffff80000070,%rdx
ffffffff800042ea:	66 89 05 33 50 00 00 	mov    %ax,0x5033(%rip)        # ffffffff80009324 <idt+0x4>
ffffffff800042f1:	66 89 0d 2e 50 00 00 	mov    %cx,0x502e(%rip)        # ffffffff80009326 <idt+0x6>
ffffffff800042f8:	c7 05 2a 50 00 00 00 	movl   $0x0,0x502a(%rip)        # ffffffff8000932c <idt+0xc>
ffffffff800042ff:	00 00 00 
ffffffff80004302:	66 89 15 27 50 00 00 	mov    %dx,0x5027(%rip)        # ffffffff80009330 <idt+0x10>
ffffffff80004309:	66 8c c9             	mov    %cs,%cx
ffffffff8000430c:	66 89 0d 1f 50 00 00 	mov    %cx,0x501f(%rip)        # ffffffff80009332 <idt+0x12>
ffffffff80004313:	48 89 d1             	mov    %rdx,%rcx
ffffffff80004316:	48 c1 ea 20          	shr    $0x20,%rdx
ffffffff8000431a:	89 15 18 50 00 00    	mov    %edx,0x5018(%rip)        # ffffffff80009338 <idt+0x18>
ffffffff80004320:	48 c1 e9 10          	shr    $0x10,%rcx
ffffffff80004324:	48 c7 c2 b0 00 00 80 	mov    $0xffffffff800000b0,%rdx
ffffffff8000432b:	66 89 05 02 50 00 00 	mov    %ax,0x5002(%rip)        # ffffffff80009334 <idt+0x14>
ffffffff80004332:	66 89 0d fd 4f 00 00 	mov    %cx,0x4ffd(%rip)        # ffffffff80009336 <idt+0x16>
ffffffff80004339:	c7 05 f9 4f 00 00 00 	movl   $0x0,0x4ff9(%rip)        # ffffffff8000933c <idt+0x1c>
ffffffff80004340:	00 00 00 
ffffffff80004343:	66 89 15 f6 4f 00 00 	mov    %dx,0x4ff6(%rip)        # ffffffff80009340 <idt+0x20>
ffffffff8000434a:	66 8c c9             	mov    %cs,%cx
ffffffff8000434d:	66 89 0d ee 4f 00 00 	mov    %cx,0x4fee(%rip)        # ffffffff80009342 <idt+0x22>
ffffffff80004354:	48 89 d1             	mov    %rdx,%rcx
ffffffff80004357:	48 c1 ea 20          	shr    $0x20,%rdx
ffffffff8000435b:	89 15 e7 4f 00 00    	mov    %edx,0x4fe7(%rip)        # ffffffff80009348 <idt+0x28>
ffffffff80004361:	48 c1 e9 10          	shr    $0x10,%rcx
ffffffff80004365:	48 c7 c2 f0 00 00 80 	mov    $0xffffffff800000f0,%rdx
ffffffff8000436c:	66 89 05 d1 4f 00 00 	mov    %ax,0x4fd1(%rip)        # ffffffff80009344 <idt+0x24>
ffffffff80004373:	66 89 0d cc 4f 00 00 	mov    %cx,0x4fcc(%rip)        # ffffffff80009346 <idt+0x26>
ffffffff8000437a:	c7 05 c8 4f 00 00 00 	movl   $0x0,0x4fc8(%rip)        # ffffffff8000934c <idt+0x2c>
ffffffff80004381:	00 00 00 
ffffffff80004384:	66 89 15 c5 4f 00 00 	mov    %dx,0x4fc5(%rip)        # ffffffff80009350 <idt+0x30>
ffffffff8000438b:	66 8c c9             	mov    %cs,%cx
ffffffff8000438e:	66 89 0d bd 4f 00 00 	mov    %cx,0x4fbd(%rip)        # ffffffff80009352 <idt+0x32>
ffffffff80004395:	48 89 d1             	mov    %rdx,%rcx
ffffffff80004398:	48 c1 ea 20          	shr    $0x20,%rdx
ffffffff8000439c:	89 15 b6 4f 00 00    	mov    %edx,0x4fb6(%rip)        # ffffffff80009358 <idt+0x38>
ffffffff800043a2:	48 c1 e9 10          	shr    $0x10,%rcx
ffffffff800043a6:	48 c7 c2 30 01 00 80 	mov    $0xffffffff80000130,%rdx
ffffffff800043ad:	66 89 05 a0 4f 00 00 	mov    %ax,0x4fa0(%rip)        # ffffffff80009354 <idt+0x34>
ffffffff800043b4:	66 89 0d 9b 4f 00 00 	mov    %cx,0x4f9b(%rip)        # ffffffff80009356 <idt+0x36>
ffffffff800043bb:	c7 05 97 4f 00 00 00 	movl   $0x0,0x4f97(%rip)        # ffffffff8000935c <idt+0x3c>
ffffffff800043c2:	00 00 00 
ffffffff800043c5:	66 89 15 94 4f 00 00 	mov    %dx,0x4f94(%rip)        # ffffffff80009360 <idt+0x40>
ffffffff800043cc:	66 8c c9             	mov    %cs,%cx
ffffffff800043cf:	66 89 0d 8c 4f 00 00 	mov    %cx,0x4f8c(%rip)        # ffffffff80009362 <idt+0x42>
ffffffff800043d6:	48 89 d1             	mov    %rdx,%rcx
ffffffff800043d9:	48 c1 ea 20          	shr    $0x20,%rdx
ffffffff800043dd:	89 15 85 4f 00 00    	mov    %edx,0x4f85(%rip)        # ffffffff80009368 <idt+0x48>
ffffffff800043e3:	48 c1 e9 10          	shr    $0x10,%rcx
ffffffff800043e7:	48 c7 c2 70 01 00 80 	mov    $0xffffffff80000170,%rdx
ffffffff800043ee:	66 89 05 6f 4f 00 00 	mov    %ax,0x4f6f(%rip)        # ffffffff80009364 <idt+0x44>
ffffffff800043f5:	66 89 0d 6a 4f 00 00 	mov    %cx,0x4f6a(%rip)        # ffffffff80009366 <idt+0x46>
ffffffff800043fc:	c7 05 66 4f 00 00 00 	movl   $0x0,0x4f66(%rip)        # ffffffff8000936c <idt+0x4c>
ffffffff80004403:	00 00 00 
ffffffff80004406:	66 89 15 63 4f 00 00 	mov    %dx,0x4f63(%rip)        # ffffffff80009370 <idt+0x50>
ffffffff8000440d:	66 8c c9             	mov    %cs,%cx
ffffffff80004410:	66 89 0d 5b 4f 00 00 	mov    %cx,0x4f5b(%rip)        # ffffffff80009372 <idt+0x52>
ffffffff80004417:	48 89 d1             	mov    %rdx,%rcx
ffffffff8000441a:	48 c1 ea 20          	shr    $0x20,%rdx
ffffffff8000441e:	89 15 54 4f 00 00    	mov    %edx,0x4f54(%rip)        # ffffffff80009378 <idt+0x58>
ffffffff80004424:	48 c1 e9 10          	shr    $0x10,%rcx
ffffffff80004428:	48 c7 c2 b0 01 00 80 	mov    $0xffffffff800001b0,%rdx
ffffffff8000442f:	66 89 05 3e 4f 00 00 	mov    %ax,0x4f3e(%rip)        # ffffffff80009374 <idt+0x54>
ffffffff80004436:	66 89 0d 39 4f 00 00 	mov    %cx,0x4f39(%rip)        # ffffffff80009376 <idt+0x56>
ffffffff8000443d:	c7 05 35 4f 00 00 00 	movl   $0x0,0x4f35(%rip)        # ffffffff8000937c <idt+0x5c>
ffffffff80004444:	00 00 00 
ffffffff80004447:	66 89 15 32 4f 00 00 	mov    %dx,0x4f32(%rip)        # ffffffff80009380 <idt+0x60>
ffffffff8000444e:	66 8c c9             	mov    %cs,%cx
ffffffff80004451:	66 89 0d 2a 4f 00 00 	mov    %cx,0x4f2a(%rip)        # ffffffff80009382 <idt+0x62>
ffffffff80004458:	48 89 d1             	mov    %rdx,%rcx
ffffffff8000445b:	48 c1 ea 20          	shr    $0x20,%rdx
ffffffff8000445f:	89 15 23 4f 00 00    	mov    %edx,0x4f23(%rip)        # ffffffff80009388 <idt+0x68>
ffffffff80004465:	48 c1 e9 10          	shr    $0x10,%rcx
ffffffff80004469:	48 c7 c2 f0 01 00 80 	mov    $0xffffffff800001f0,%rdx
ffffffff80004470:	66 89 05 0d 4f 00 00 	mov    %ax,0x4f0d(%rip)        # ffffffff80009384 <idt+0x64>
ffffffff80004477:	66 89 0d 08 4f 00 00 	mov    %cx,0x4f08(%rip)        # ffffffff80009386 <idt+0x66>
ffffffff8000447e:	c7 05 04 4f 00 00 00 	movl   $0x0,0x4f04(%rip)        # ffffffff8000938c <idt+0x6c>
ffffffff80004485:	00 00 00 
ffffffff80004488:	66 89 15 01 4f 00 00 	mov    %dx,0x4f01(%rip)        # ffffffff80009390 <idt+0x70>
ffffffff8000448f:	66 8c c9             	mov    %cs,%cx
ffffffff80004492:	66 89 0d f9 4e 00 00 	mov    %cx,0x4ef9(%rip)        # ffffffff80009392 <idt+0x72>
ffffffff80004499:	48 89 d1             	mov    %rdx,%rcx
ffffffff8000449c:	48 c1 ea 20          	shr    $0x20,%rdx
ffffffff800044a0:	89 15 f2 4e 00 00    	mov    %edx,0x4ef2(%rip)        # ffffffff80009398 <idt+0x78>
ffffffff800044a6:	48 c1 e9 10          	shr    $0x10,%rcx
ffffffff800044aa:	48 c7 c2 30 02 00 80 	mov    $0xffffffff80000230,%rdx
ffffffff800044b1:	66 89 05 dc 4e 00 00 	mov    %ax,0x4edc(%rip)        # ffffffff80009394 <idt+0x74>
ffffffff800044b8:	66 89 0d d7 4e 00 00 	mov    %cx,0x4ed7(%rip)        # ffffffff80009396 <idt+0x76>
ffffffff800044bf:	c7 05 d3 4e 00 00 00 	movl   $0x0,0x4ed3(%rip)        # ffffffff8000939c <idt+0x7c>
ffffffff800044c6:	00 00 00 
ffffffff800044c9:	66 89 15 d0 4e 00 00 	mov    %dx,0x4ed0(%rip)        # ffffffff800093a0 <idt+0x80>
ffffffff800044d0:	66 8c c9             	mov    %cs,%cx
ffffffff800044d3:	66 89 0d c8 4e 00 00 	mov    %cx,0x4ec8(%rip)        # ffffffff800093a2 <idt+0x82>
ffffffff800044da:	48 89 d1             	mov    %rdx,%rcx
ffffffff800044dd:	48 c1 ea 20          	shr    $0x20,%rdx
ffffffff800044e1:	89 15 c1 4e 00 00    	mov    %edx,0x4ec1(%rip)        # ffffffff800093a8 <idt+0x88>
ffffffff800044e7:	48 c1 e9 10          	shr    $0x10,%rcx
ffffffff800044eb:	48 c7 c2 6e 02 00 80 	mov    $0xffffffff8000026e,%rdx
ffffffff800044f2:	66 89 05 ab 4e 00 00 	mov    %ax,0x4eab(%rip)        # ffffffff800093a4 <idt+0x84>
ffffffff800044f9:	66 89 0d a6 4e 00 00 	mov    %cx,0x4ea6(%rip)        # ffffffff800093a6 <idt+0x86>
ffffffff80004500:	c7 05 a2 4e 00 00 00 	movl   $0x0,0x4ea2(%rip)        # ffffffff800093ac <idt+0x8c>
ffffffff80004507:	00 00 00 
ffffffff8000450a:	66 89 15 9f 4e 00 00 	mov    %dx,0x4e9f(%rip)        # ffffffff800093b0 <idt+0x90>
ffffffff80004511:	66 8c c9             	mov    %cs,%cx
ffffffff80004514:	66 89 0d 97 4e 00 00 	mov    %cx,0x4e97(%rip)        # ffffffff800093b2 <idt+0x92>
ffffffff8000451b:	48 89 d1             	mov    %rdx,%rcx
ffffffff8000451e:	48 c1 ea 20          	shr    $0x20,%rdx
ffffffff80004522:	89 15 90 4e 00 00    	mov    %edx,0x4e90(%rip)        # ffffffff800093b8 <idt+0x98>
ffffffff80004528:	48 c1 e9 10          	shr    $0x10,%rcx
ffffffff8000452c:	48 c7 c2 ae 02 00 80 	mov    $0xffffffff800002ae,%rdx
ffffffff80004533:	66 89 05 7a 4e 00 00 	mov    %ax,0x4e7a(%rip)        # ffffffff800093b4 <idt+0x94>
ffffffff8000453a:	66 89 0d 75 4e 00 00 	mov    %cx,0x4e75(%rip)        # ffffffff800093b6 <idt+0x96>
ffffffff80004541:	c7 05 71 4e 00 00 00 	movl   $0x0,0x4e71(%rip)        # ffffffff800093bc <idt+0x9c>
ffffffff80004548:	00 00 00 
ffffffff8000454b:	66 89 15 6e 4e 00 00 	mov    %dx,0x4e6e(%rip)        # ffffffff800093c0 <idt+0xa0>
ffffffff80004552:	66 8c c9             	mov    %cs,%cx
ffffffff80004555:	66 89 0d 66 4e 00 00 	mov    %cx,0x4e66(%rip)        # ffffffff800093c2 <idt+0xa2>
ffffffff8000455c:	48 89 d1             	mov    %rdx,%rcx
ffffffff8000455f:	48 c1 ea 20          	shr    $0x20,%rdx
ffffffff80004563:	89 15 5f 4e 00 00    	mov    %edx,0x4e5f(%rip)        # ffffffff800093c8 <idt+0xa8>
ffffffff80004569:	48 c1 e9 10          	shr    $0x10,%rcx
ffffffff8000456d:	48 c7 c2 ec 02 00 80 	mov    $0xffffffff800002ec,%rdx
ffffffff80004574:	66 89 05 49 4e 00 00 	mov    %ax,0x4e49(%rip)        # ffffffff800093c4 <idt+0xa4>
ffffffff8000457b:	66 89 0d 44 4e 00 00 	mov    %cx,0x4e44(%rip)        # ffffffff800093c6 <idt+0xa6>
ffffffff80004582:	c7 05 40 4e 00 00 00 	movl   $0x0,0x4e40(%rip)        # ffffffff800093cc <idt+0xac>
ffffffff80004589:	00 00 00 
ffffffff8000458c:	66 89 15 3d 4e 00 00 	mov    %dx,0x4e3d(%rip)        # ffffffff800093d0 <idt+0xb0>
ffffffff80004593:	66 8c c9             	mov    %cs,%cx
ffffffff80004596:	66 89 0d 35 4e 00 00 	mov    %cx,0x4e35(%rip)        # ffffffff800093d2 <idt+0xb2>
ffffffff8000459d:	48 89 d1             	mov    %rdx,%rcx
ffffffff800045a0:	48 c1 ea 20          	shr    $0x20,%rdx
ffffffff800045a4:	89 15 2e 4e 00 00    	mov    %edx,0x4e2e(%rip)        # ffffffff800093d8 <idt+0xb8>
ffffffff800045aa:	48 c1 e9 10          	shr    $0x10,%rcx
ffffffff800045ae:	48 c7 c2 2a 03 00 80 	mov    $0xffffffff8000032a,%rdx
ffffffff800045b5:	66 89 05 18 4e 00 00 	mov    %ax,0x4e18(%rip)        # ffffffff800093d4 <idt+0xb4>
ffffffff800045bc:	66 89 0d 13 4e 00 00 	mov    %cx,0x4e13(%rip)        # ffffffff800093d6 <idt+0xb6>
ffffffff800045c3:	c7 05 0f 4e 00 00 00 	movl   $0x0,0x4e0f(%rip)        # ffffffff800093dc <idt+0xbc>
ffffffff800045ca:	00 00 00 
ffffffff800045cd:	66 89 15 0c 4e 00 00 	mov    %dx,0x4e0c(%rip)        # ffffffff800093e0 <idt+0xc0>
ffffffff800045d4:	66 8c c9             	mov    %cs,%cx
ffffffff800045d7:	66 89 0d 04 4e 00 00 	mov    %cx,0x4e04(%rip)        # ffffffff800093e2 <idt+0xc2>
ffffffff800045de:	48 89 d1             	mov    %rdx,%rcx
ffffffff800045e1:	48 c1 ea 20          	shr    $0x20,%rdx
ffffffff800045e5:	89 15 fd 4d 00 00    	mov    %edx,0x4dfd(%rip)        # ffffffff800093e8 <idt+0xc8>
ffffffff800045eb:	48 c1 e9 10          	shr    $0x10,%rcx
ffffffff800045ef:	48 c7 c2 68 03 00 80 	mov    $0xffffffff80000368,%rdx
ffffffff800045f6:	66 89 05 e7 4d 00 00 	mov    %ax,0x4de7(%rip)        # ffffffff800093e4 <idt+0xc4>
ffffffff800045fd:	66 89 0d e2 4d 00 00 	mov    %cx,0x4de2(%rip)        # ffffffff800093e6 <idt+0xc6>
ffffffff80004604:	c7 05 de 4d 00 00 00 	movl   $0x0,0x4dde(%rip)        # ffffffff800093ec <idt+0xcc>
ffffffff8000460b:	00 00 00 
ffffffff8000460e:	66 89 15 db 4d 00 00 	mov    %dx,0x4ddb(%rip)        # ffffffff800093f0 <idt+0xd0>
ffffffff80004615:	66 8c c9             	mov    %cs,%cx
ffffffff80004618:	66 89 0d d3 4d 00 00 	mov    %cx,0x4dd3(%rip)        # ffffffff800093f2 <idt+0xd2>
ffffffff8000461f:	48 89 d1             	mov    %rdx,%rcx
ffffffff80004622:	48 c1 ea 20          	shr    $0x20,%rdx
ffffffff80004626:	89 15 cc 4d 00 00    	mov    %edx,0x4dcc(%rip)        # ffffffff800093f8 <idt+0xd8>
ffffffff8000462c:	48 c1 e9 10          	shr    $0x10,%rcx
ffffffff80004630:	48 c7 c2 a6 03 00 80 	mov    $0xffffffff800003a6,%rdx
ffffffff80004637:	66 89 05 b6 4d 00 00 	mov    %ax,0x4db6(%rip)        # ffffffff800093f4 <idt+0xd4>
ffffffff8000463e:	66 89 0d b1 4d 00 00 	mov    %cx,0x4db1(%rip)        # ffffffff800093f6 <idt+0xd6>
ffffffff80004645:	c7 05 ad 4d 00 00 00 	movl   $0x0,0x4dad(%rip)        # ffffffff800093fc <idt+0xdc>
ffffffff8000464c:	00 00 00 
ffffffff8000464f:	66 89 15 aa 4d 00 00 	mov    %dx,0x4daa(%rip)        # ffffffff80009400 <idt+0xe0>
ffffffff80004656:	66 8c c9             	mov    %cs,%cx
ffffffff80004659:	66 89 0d a2 4d 00 00 	mov    %cx,0x4da2(%rip)        # ffffffff80009402 <idt+0xe2>
ffffffff80004660:	48 89 d1             	mov    %rdx,%rcx
ffffffff80004663:	48 c1 ea 20          	shr    $0x20,%rdx
ffffffff80004667:	89 15 9b 4d 00 00    	mov    %edx,0x4d9b(%rip)        # ffffffff80009408 <idt+0xe8>
ffffffff8000466d:	48 c1 e9 10          	shr    $0x10,%rcx
ffffffff80004671:	48 c7 c2 e4 03 00 80 	mov    $0xffffffff800003e4,%rdx
ffffffff80004678:	66 89 05 85 4d 00 00 	mov    %ax,0x4d85(%rip)        # ffffffff80009404 <idt+0xe4>
ffffffff8000467f:	66 89 0d 80 4d 00 00 	mov    %cx,0x4d80(%rip)        # ffffffff80009406 <idt+0xe6>
ffffffff80004686:	c7 05 7c 4d 00 00 00 	movl   $0x0,0x4d7c(%rip)        # ffffffff8000940c <idt+0xec>
ffffffff8000468d:	00 00 00 
ffffffff80004690:	66 89 15 79 4d 00 00 	mov    %dx,0x4d79(%rip)        # ffffffff80009410 <idt+0xf0>
ffffffff80004697:	66 8c c9             	mov    %cs,%cx
ffffffff8000469a:	66 89 0d 71 4d 00 00 	mov    %cx,0x4d71(%rip)        # ffffffff80009412 <idt+0xf2>
ffffffff800046a1:	48 89 d1             	mov    %rdx,%rcx
ffffffff800046a4:	48 c1 ea 20          	shr    $0x20,%rdx
ffffffff800046a8:	89 15 6a 4d 00 00    	mov    %edx,0x4d6a(%rip)        # ffffffff80009418 <idt+0xf8>
ffffffff800046ae:	48 c1 e9 10          	shr    $0x10,%rcx
ffffffff800046b2:	48 c7 c2 24 04 00 80 	mov    $0xffffffff80000424,%rdx
ffffffff800046b9:	66 89 05 54 4d 00 00 	mov    %ax,0x4d54(%rip)        # ffffffff80009414 <idt+0xf4>
ffffffff800046c0:	66 89 0d 4f 4d 00 00 	mov    %cx,0x4d4f(%rip)        # ffffffff80009416 <idt+0xf6>
ffffffff800046c7:	c7 05 4b 4d 00 00 00 	movl   $0x0,0x4d4b(%rip)        # ffffffff8000941c <idt+0xfc>
ffffffff800046ce:	00 00 00 
ffffffff800046d1:	66 89 15 48 4d 00 00 	mov    %dx,0x4d48(%rip)        # ffffffff80009420 <idt+0x100>
ffffffff800046d8:	66 8c c9             	mov    %cs,%cx
ffffffff800046db:	66 89 0d 40 4d 00 00 	mov    %cx,0x4d40(%rip)        # ffffffff80009422 <idt+0x102>
ffffffff800046e2:	48 89 d1             	mov    %rdx,%rcx
ffffffff800046e5:	48 c1 ea 20          	shr    $0x20,%rdx
ffffffff800046e9:	89 15 39 4d 00 00    	mov    %edx,0x4d39(%rip)        # ffffffff80009428 <idt+0x108>
ffffffff800046ef:	48 c1 e9 10          	shr    $0x10,%rcx
ffffffff800046f3:	48 c7 c2 64 04 00 80 	mov    $0xffffffff80000464,%rdx
ffffffff800046fa:	66 89 05 23 4d 00 00 	mov    %ax,0x4d23(%rip)        # ffffffff80009424 <idt+0x104>
ffffffff80004701:	66 89 0d 1e 4d 00 00 	mov    %cx,0x4d1e(%rip)        # ffffffff80009426 <idt+0x106>
ffffffff80004708:	c7 05 1a 4d 00 00 00 	movl   $0x0,0x4d1a(%rip)        # ffffffff8000942c <idt+0x10c>
ffffffff8000470f:	00 00 00 
ffffffff80004712:	66 89 15 17 4d 00 00 	mov    %dx,0x4d17(%rip)        # ffffffff80009430 <idt+0x110>
ffffffff80004719:	66 8c c9             	mov    %cs,%cx
ffffffff8000471c:	66 89 0d 0f 4d 00 00 	mov    %cx,0x4d0f(%rip)        # ffffffff80009432 <idt+0x112>
ffffffff80004723:	48 89 d1             	mov    %rdx,%rcx
ffffffff80004726:	48 c1 ea 20          	shr    $0x20,%rdx
ffffffff8000472a:	89 15 08 4d 00 00    	mov    %edx,0x4d08(%rip)        # ffffffff80009438 <idt+0x118>
ffffffff80004730:	48 c1 e9 10          	shr    $0x10,%rcx
ffffffff80004734:	48 c7 c2 a2 04 00 80 	mov    $0xffffffff800004a2,%rdx
ffffffff8000473b:	66 89 05 f2 4c 00 00 	mov    %ax,0x4cf2(%rip)        # ffffffff80009434 <idt+0x114>
ffffffff80004742:	66 89 0d ed 4c 00 00 	mov    %cx,0x4ced(%rip)        # ffffffff80009436 <idt+0x116>
ffffffff80004749:	c7 05 e9 4c 00 00 00 	movl   $0x0,0x4ce9(%rip)        # ffffffff8000943c <idt+0x11c>
ffffffff80004750:	00 00 00 
ffffffff80004753:	66 89 15 e6 4c 00 00 	mov    %dx,0x4ce6(%rip)        # ffffffff80009440 <idt+0x120>
ffffffff8000475a:	66 8c c9             	mov    %cs,%cx
ffffffff8000475d:	66 89 0d de 4c 00 00 	mov    %cx,0x4cde(%rip)        # ffffffff80009442 <idt+0x122>
ffffffff80004764:	48 89 d1             	mov    %rdx,%rcx
ffffffff80004767:	48 c1 ea 20          	shr    $0x20,%rdx
ffffffff8000476b:	89 15 d7 4c 00 00    	mov    %edx,0x4cd7(%rip)        # ffffffff80009448 <idt+0x128>
ffffffff80004771:	48 c1 e9 10          	shr    $0x10,%rcx
ffffffff80004775:	48 c7 c2 e2 04 00 80 	mov    $0xffffffff800004e2,%rdx
ffffffff8000477c:	66 89 05 c1 4c 00 00 	mov    %ax,0x4cc1(%rip)        # ffffffff80009444 <idt+0x124>
ffffffff80004783:	66 89 0d bc 4c 00 00 	mov    %cx,0x4cbc(%rip)        # ffffffff80009446 <idt+0x126>
ffffffff8000478a:	c7 05 b8 4c 00 00 00 	movl   $0x0,0x4cb8(%rip)        # ffffffff8000944c <idt+0x12c>
ffffffff80004791:	00 00 00 
ffffffff80004794:	66 89 15 b5 4c 00 00 	mov    %dx,0x4cb5(%rip)        # ffffffff80009450 <idt+0x130>
ffffffff8000479b:	66 8c c9             	mov    %cs,%cx
ffffffff8000479e:	66 89 0d ad 4c 00 00 	mov    %cx,0x4cad(%rip)        # ffffffff80009452 <idt+0x132>
ffffffff800047a5:	48 89 d1             	mov    %rdx,%rcx
ffffffff800047a8:	48 c1 ea 20          	shr    $0x20,%rdx
ffffffff800047ac:	89 15 a6 4c 00 00    	mov    %edx,0x4ca6(%rip)        # ffffffff80009458 <idt+0x138>
ffffffff800047b2:	48 c1 e9 10          	shr    $0x10,%rcx
ffffffff800047b6:	48 c7 c2 22 05 00 80 	mov    $0xffffffff80000522,%rdx
ffffffff800047bd:	66 89 05 90 4c 00 00 	mov    %ax,0x4c90(%rip)        # ffffffff80009454 <idt+0x134>
ffffffff800047c4:	66 89 0d 8b 4c 00 00 	mov    %cx,0x4c8b(%rip)        # ffffffff80009456 <idt+0x136>
ffffffff800047cb:	c7 05 87 4c 00 00 00 	movl   $0x0,0x4c87(%rip)        # ffffffff8000945c <idt+0x13c>
ffffffff800047d2:	00 00 00 
ffffffff800047d5:	66 89 15 84 4c 00 00 	mov    %dx,0x4c84(%rip)        # ffffffff80009460 <idt+0x140>
ffffffff800047dc:	66 8c c9             	mov    %cs,%cx
ffffffff800047df:	66 89 0d 7c 4c 00 00 	mov    %cx,0x4c7c(%rip)        # ffffffff80009462 <idt+0x142>
ffffffff800047e6:	48 89 d1             	mov    %rdx,%rcx
ffffffff800047e9:	48 c1 ea 20          	shr    $0x20,%rdx
ffffffff800047ed:	89 15 75 4c 00 00    	mov    %edx,0x4c75(%rip)        # ffffffff80009468 <idt+0x148>
ffffffff800047f3:	48 c1 e9 10          	shr    $0x10,%rcx
ffffffff800047f7:	48 c7 c2 62 05 00 80 	mov    $0xffffffff80000562,%rdx
ffffffff800047fe:	66 89 05 5f 4c 00 00 	mov    %ax,0x4c5f(%rip)        # ffffffff80009464 <idt+0x144>
ffffffff80004805:	66 89 0d 5a 4c 00 00 	mov    %cx,0x4c5a(%rip)        # ffffffff80009466 <idt+0x146>
ffffffff8000480c:	c7 05 56 4c 00 00 00 	movl   $0x0,0x4c56(%rip)        # ffffffff8000946c <idt+0x14c>
ffffffff80004813:	00 00 00 
ffffffff80004816:	66 89 15 53 4c 00 00 	mov    %dx,0x4c53(%rip)        # ffffffff80009470 <idt+0x150>
ffffffff8000481d:	66 8c c9             	mov    %cs,%cx
ffffffff80004820:	66 89 0d 4b 4c 00 00 	mov    %cx,0x4c4b(%rip)        # ffffffff80009472 <idt+0x152>
ffffffff80004827:	48 89 d1             	mov    %rdx,%rcx
ffffffff8000482a:	48 c1 ea 20          	shr    $0x20,%rdx
ffffffff8000482e:	89 15 44 4c 00 00    	mov    %edx,0x4c44(%rip)        # ffffffff80009478 <idt+0x158>
ffffffff80004834:	48 c1 e9 10          	shr    $0x10,%rcx
ffffffff80004838:	48 c7 c2 a0 05 00 80 	mov    $0xffffffff800005a0,%rdx
ffffffff8000483f:	66 89 05 2e 4c 00 00 	mov    %ax,0x4c2e(%rip)        # ffffffff80009474 <idt+0x154>
ffffffff80004846:	66 89 0d 29 4c 00 00 	mov    %cx,0x4c29(%rip)        # ffffffff80009476 <idt+0x156>
ffffffff8000484d:	c7 05 25 4c 00 00 00 	movl   $0x0,0x4c25(%rip)        # ffffffff8000947c <idt+0x15c>
ffffffff80004854:	00 00 00 
ffffffff80004857:	66 89 15 22 4c 00 00 	mov    %dx,0x4c22(%rip)        # ffffffff80009480 <idt+0x160>
ffffffff8000485e:	66 8c c9             	mov    %cs,%cx
ffffffff80004861:	66 89 0d 1a 4c 00 00 	mov    %cx,0x4c1a(%rip)        # ffffffff80009482 <idt+0x162>
ffffffff80004868:	48 89 d1             	mov    %rdx,%rcx
ffffffff8000486b:	48 c1 ea 20          	shr    $0x20,%rdx
ffffffff8000486f:	89 15 13 4c 00 00    	mov    %edx,0x4c13(%rip)        # ffffffff80009488 <idt+0x168>
ffffffff80004875:	48 c1 e9 10          	shr    $0x10,%rcx
ffffffff80004879:	48 c7 c2 e0 05 00 80 	mov    $0xffffffff800005e0,%rdx
ffffffff80004880:	66 89 05 fd 4b 00 00 	mov    %ax,0x4bfd(%rip)        # ffffffff80009484 <idt+0x164>
ffffffff80004887:	66 89 0d f8 4b 00 00 	mov    %cx,0x4bf8(%rip)        # ffffffff80009486 <idt+0x166>
ffffffff8000488e:	c7 05 f4 4b 00 00 00 	movl   $0x0,0x4bf4(%rip)        # ffffffff8000948c <idt+0x16c>
ffffffff80004895:	00 00 00 
ffffffff80004898:	66 89 15 f1 4b 00 00 	mov    %dx,0x4bf1(%rip)        # ffffffff80009490 <idt+0x170>
ffffffff8000489f:	66 8c c9             	mov    %cs,%cx
ffffffff800048a2:	66 89 0d e9 4b 00 00 	mov    %cx,0x4be9(%rip)        # ffffffff80009492 <idt+0x172>
ffffffff800048a9:	48 89 d1             	mov    %rdx,%rcx
ffffffff800048ac:	48 c1 ea 20          	shr    $0x20,%rdx
ffffffff800048b0:	89 15 e2 4b 00 00    	mov    %edx,0x4be2(%rip)        # ffffffff80009498 <idt+0x178>
ffffffff800048b6:	48 c1 e9 10          	shr    $0x10,%rcx
ffffffff800048ba:	48 c7 c2 20 06 00 80 	mov    $0xffffffff80000620,%rdx
ffffffff800048c1:	66 89 05 cc 4b 00 00 	mov    %ax,0x4bcc(%rip)        # ffffffff80009494 <idt+0x174>
ffffffff800048c8:	66 89 0d c7 4b 00 00 	mov    %cx,0x4bc7(%rip)        # ffffffff80009496 <idt+0x176>
ffffffff800048cf:	c7 05 c3 4b 00 00 00 	movl   $0x0,0x4bc3(%rip)        # ffffffff8000949c <idt+0x17c>
ffffffff800048d6:	00 00 00 
ffffffff800048d9:	66 89 15 c0 4b 00 00 	mov    %dx,0x4bc0(%rip)        # ffffffff800094a0 <idt+0x180>
ffffffff800048e0:	66 8c c9             	mov    %cs,%cx
ffffffff800048e3:	66 89 0d b8 4b 00 00 	mov    %cx,0x4bb8(%rip)        # ffffffff800094a2 <idt+0x182>
ffffffff800048ea:	48 89 d1             	mov    %rdx,%rcx
ffffffff800048ed:	48 c1 ea 20          	shr    $0x20,%rdx
ffffffff800048f1:	89 15 b1 4b 00 00    	mov    %edx,0x4bb1(%rip)        # ffffffff800094a8 <idt+0x188>
ffffffff800048f7:	48 c1 e9 10          	shr    $0x10,%rcx
ffffffff800048fb:	48 c7 c2 60 06 00 80 	mov    $0xffffffff80000660,%rdx
ffffffff80004902:	66 89 05 9b 4b 00 00 	mov    %ax,0x4b9b(%rip)        # ffffffff800094a4 <idt+0x184>
ffffffff80004909:	66 89 0d 96 4b 00 00 	mov    %cx,0x4b96(%rip)        # ffffffff800094a6 <idt+0x186>
ffffffff80004910:	c7 05 92 4b 00 00 00 	movl   $0x0,0x4b92(%rip)        # ffffffff800094ac <idt+0x18c>
ffffffff80004917:	00 00 00 
ffffffff8000491a:	66 89 15 8f 4b 00 00 	mov    %dx,0x4b8f(%rip)        # ffffffff800094b0 <idt+0x190>
ffffffff80004921:	66 8c c9             	mov    %cs,%cx
ffffffff80004924:	66 89 0d 87 4b 00 00 	mov    %cx,0x4b87(%rip)        # ffffffff800094b2 <idt+0x192>
ffffffff8000492b:	48 89 d1             	mov    %rdx,%rcx
ffffffff8000492e:	48 c1 ea 20          	shr    $0x20,%rdx
ffffffff80004932:	89 15 80 4b 00 00    	mov    %edx,0x4b80(%rip)        # ffffffff800094b8 <idt+0x198>
ffffffff80004938:	48 c1 e9 10          	shr    $0x10,%rcx
ffffffff8000493c:	48 c7 c2 a0 06 00 80 	mov    $0xffffffff800006a0,%rdx
ffffffff80004943:	66 89 05 6a 4b 00 00 	mov    %ax,0x4b6a(%rip)        # ffffffff800094b4 <idt+0x194>
ffffffff8000494a:	66 89 0d 65 4b 00 00 	mov    %cx,0x4b65(%rip)        # ffffffff800094b6 <idt+0x196>
ffffffff80004951:	c7 05 61 4b 00 00 00 	movl   $0x0,0x4b61(%rip)        # ffffffff800094bc <idt+0x19c>
ffffffff80004958:	00 00 00 
ffffffff8000495b:	66 89 15 5e 4b 00 00 	mov    %dx,0x4b5e(%rip)        # ffffffff800094c0 <idt+0x1a0>
ffffffff80004962:	66 8c c9             	mov    %cs,%cx
ffffffff80004965:	66 89 0d 56 4b 00 00 	mov    %cx,0x4b56(%rip)        # ffffffff800094c2 <idt+0x1a2>
ffffffff8000496c:	48 89 d1             	mov    %rdx,%rcx
ffffffff8000496f:	48 c1 ea 20          	shr    $0x20,%rdx
ffffffff80004973:	89 15 4f 4b 00 00    	mov    %edx,0x4b4f(%rip)        # ffffffff800094c8 <idt+0x1a8>
ffffffff80004979:	48 c1 e9 10          	shr    $0x10,%rcx
ffffffff8000497d:	48 c7 c2 e0 06 00 80 	mov    $0xffffffff800006e0,%rdx
ffffffff80004984:	66 89 05 39 4b 00 00 	mov    %ax,0x4b39(%rip)        # ffffffff800094c4 <idt+0x1a4>
ffffffff8000498b:	66 89 0d 34 4b 00 00 	mov    %cx,0x4b34(%rip)        # ffffffff800094c6 <idt+0x1a6>
ffffffff80004992:	c7 05 30 4b 00 00 00 	movl   $0x0,0x4b30(%rip)        # ffffffff800094cc <idt+0x1ac>
ffffffff80004999:	00 00 00 
ffffffff8000499c:	66 89 15 2d 4b 00 00 	mov    %dx,0x4b2d(%rip)        # ffffffff800094d0 <idt+0x1b0>
ffffffff800049a3:	66 8c c9             	mov    %cs,%cx
ffffffff800049a6:	66 89 0d 25 4b 00 00 	mov    %cx,0x4b25(%rip)        # ffffffff800094d2 <idt+0x1b2>
ffffffff800049ad:	48 89 d1             	mov    %rdx,%rcx
ffffffff800049b0:	48 c1 ea 20          	shr    $0x20,%rdx
ffffffff800049b4:	89 15 1e 4b 00 00    	mov    %edx,0x4b1e(%rip)        # ffffffff800094d8 <idt+0x1b8>
ffffffff800049ba:	48 c1 e9 10          	shr    $0x10,%rcx
ffffffff800049be:	48 c7 c2 20 07 00 80 	mov    $0xffffffff80000720,%rdx
ffffffff800049c5:	66 89 05 08 4b 00 00 	mov    %ax,0x4b08(%rip)        # ffffffff800094d4 <idt+0x1b4>
ffffffff800049cc:	66 89 0d 03 4b 00 00 	mov    %cx,0x4b03(%rip)        # ffffffff800094d6 <idt+0x1b6>
ffffffff800049d3:	c7 05 ff 4a 00 00 00 	movl   $0x0,0x4aff(%rip)        # ffffffff800094dc <idt+0x1bc>
ffffffff800049da:	00 00 00 
ffffffff800049dd:	66 89 15 fc 4a 00 00 	mov    %dx,0x4afc(%rip)        # ffffffff800094e0 <idt+0x1c0>
ffffffff800049e4:	66 8c c9             	mov    %cs,%cx
ffffffff800049e7:	66 89 0d f4 4a 00 00 	mov    %cx,0x4af4(%rip)        # ffffffff800094e2 <idt+0x1c2>
ffffffff800049ee:	48 89 d1             	mov    %rdx,%rcx
ffffffff800049f1:	48 c1 ea 20          	shr    $0x20,%rdx
ffffffff800049f5:	89 15 ed 4a 00 00    	mov    %edx,0x4aed(%rip)        # ffffffff800094e8 <idt+0x1c8>
ffffffff800049fb:	48 c1 e9 10          	shr    $0x10,%rcx
ffffffff800049ff:	48 c7 c2 60 07 00 80 	mov    $0xffffffff80000760,%rdx
ffffffff80004a06:	66 89 05 d7 4a 00 00 	mov    %ax,0x4ad7(%rip)        # ffffffff800094e4 <idt+0x1c4>
ffffffff80004a0d:	66 89 0d d2 4a 00 00 	mov    %cx,0x4ad2(%rip)        # ffffffff800094e6 <idt+0x1c6>
ffffffff80004a14:	c7 05 ce 4a 00 00 00 	movl   $0x0,0x4ace(%rip)        # ffffffff800094ec <idt+0x1cc>
ffffffff80004a1b:	00 00 00 
ffffffff80004a1e:	66 89 15 cb 4a 00 00 	mov    %dx,0x4acb(%rip)        # ffffffff800094f0 <idt+0x1d0>
ffffffff80004a25:	66 8c c9             	mov    %cs,%cx
ffffffff80004a28:	66 89 0d c3 4a 00 00 	mov    %cx,0x4ac3(%rip)        # ffffffff800094f2 <idt+0x1d2>
ffffffff80004a2f:	48 89 d1             	mov    %rdx,%rcx
ffffffff80004a32:	48 c1 ea 20          	shr    $0x20,%rdx
ffffffff80004a36:	89 15 bc 4a 00 00    	mov    %edx,0x4abc(%rip)        # ffffffff800094f8 <idt+0x1d8>
ffffffff80004a3c:	48 c1 e9 10          	shr    $0x10,%rcx
ffffffff80004a40:	48 c7 c2 9e 07 00 80 	mov    $0xffffffff8000079e,%rdx
ffffffff80004a47:	66 89 05 a6 4a 00 00 	mov    %ax,0x4aa6(%rip)        # ffffffff800094f4 <idt+0x1d4>
ffffffff80004a4e:	66 89 0d a1 4a 00 00 	mov    %cx,0x4aa1(%rip)        # ffffffff800094f6 <idt+0x1d6>
ffffffff80004a55:	c7 05 9d 4a 00 00 00 	movl   $0x0,0x4a9d(%rip)        # ffffffff800094fc <idt+0x1dc>
ffffffff80004a5c:	00 00 00 
ffffffff80004a5f:	66 89 15 9a 4a 00 00 	mov    %dx,0x4a9a(%rip)        # ffffffff80009500 <idt+0x1e0>
ffffffff80004a66:	66 8c c9             	mov    %cs,%cx
ffffffff80004a69:	66 89 0d 92 4a 00 00 	mov    %cx,0x4a92(%rip)        # ffffffff80009502 <idt+0x1e2>
ffffffff80004a70:	48 89 d1             	mov    %rdx,%rcx
ffffffff80004a73:	48 c1 ea 20          	shr    $0x20,%rdx
ffffffff80004a77:	89 15 8b 4a 00 00    	mov    %edx,0x4a8b(%rip)        # ffffffff80009508 <idt+0x1e8>
ffffffff80004a7d:	48 c1 e9 10          	shr    $0x10,%rcx
ffffffff80004a81:	48 c7 c2 dc 07 00 80 	mov    $0xffffffff800007dc,%rdx
ffffffff80004a88:	66 89 05 75 4a 00 00 	mov    %ax,0x4a75(%rip)        # ffffffff80009504 <idt+0x1e4>
ffffffff80004a8f:	66 89 0d 70 4a 00 00 	mov    %cx,0x4a70(%rip)        # ffffffff80009506 <idt+0x1e6>
ffffffff80004a96:	c7 05 6c 4a 00 00 00 	movl   $0x0,0x4a6c(%rip)        # ffffffff8000950c <idt+0x1ec>
ffffffff80004a9d:	00 00 00 
ffffffff80004aa0:	66 89 15 69 4a 00 00 	mov    %dx,0x4a69(%rip)        # ffffffff80009510 <idt+0x1f0>
ffffffff80004aa7:	66 8c c9             	mov    %cs,%cx
ffffffff80004aaa:	66 89 0d 61 4a 00 00 	mov    %cx,0x4a61(%rip)        # ffffffff80009512 <idt+0x1f2>
ffffffff80004ab1:	48 89 d1             	mov    %rdx,%rcx
ffffffff80004ab4:	48 c1 ea 20          	shr    $0x20,%rdx
ffffffff80004ab8:	89 15 5a 4a 00 00    	mov    %edx,0x4a5a(%rip)        # ffffffff80009518 <idt+0x1f8>
ffffffff80004abe:	48 c1 e9 10          	shr    $0x10,%rcx
ffffffff80004ac2:	48 c7 c2 1c 08 00 80 	mov    $0xffffffff8000081c,%rdx
ffffffff80004ac9:	66 89 05 44 4a 00 00 	mov    %ax,0x4a44(%rip)        # ffffffff80009514 <idt+0x1f4>
ffffffff80004ad0:	66 89 0d 3f 4a 00 00 	mov    %cx,0x4a3f(%rip)        # ffffffff80009516 <idt+0x1f6>
ffffffff80004ad7:	c7 05 3b 4a 00 00 00 	movl   $0x0,0x4a3b(%rip)        # ffffffff8000951c <idt+0x1fc>
ffffffff80004ade:	00 00 00 
ffffffff80004ae1:	66 89 15 38 4a 00 00 	mov    %dx,0x4a38(%rip)        # ffffffff80009520 <idt+0x200>
ffffffff80004ae8:	66 8c c9             	mov    %cs,%cx
ffffffff80004aeb:	66 89 0d 30 4a 00 00 	mov    %cx,0x4a30(%rip)        # ffffffff80009522 <idt+0x202>
ffffffff80004af2:	48 89 d1             	mov    %rdx,%rcx
ffffffff80004af5:	48 c1 ea 20          	shr    $0x20,%rdx
ffffffff80004af9:	89 15 29 4a 00 00    	mov    %edx,0x4a29(%rip)        # ffffffff80009528 <idt+0x208>
ffffffff80004aff:	48 c1 e9 10          	shr    $0x10,%rcx
ffffffff80004b03:	48 c7 c2 5c 08 00 80 	mov    $0xffffffff8000085c,%rdx
ffffffff80004b0a:	66 89 05 13 4a 00 00 	mov    %ax,0x4a13(%rip)        # ffffffff80009524 <idt+0x204>
ffffffff80004b11:	66 89 0d 0e 4a 00 00 	mov    %cx,0x4a0e(%rip)        # ffffffff80009526 <idt+0x206>
ffffffff80004b18:	c7 05 0a 4a 00 00 00 	movl   $0x0,0x4a0a(%rip)        # ffffffff8000952c <idt+0x20c>
ffffffff80004b1f:	00 00 00 
ffffffff80004b22:	66 89 15 07 4a 00 00 	mov    %dx,0x4a07(%rip)        # ffffffff80009530 <idt+0x210>
ffffffff80004b29:	66 8c c9             	mov    %cs,%cx
ffffffff80004b2c:	66 89 0d ff 49 00 00 	mov    %cx,0x49ff(%rip)        # ffffffff80009532 <idt+0x212>
ffffffff80004b33:	48 89 d1             	mov    %rdx,%rcx
ffffffff80004b36:	48 c1 ea 20          	shr    $0x20,%rdx
ffffffff80004b3a:	89 15 f8 49 00 00    	mov    %edx,0x49f8(%rip)        # ffffffff80009538 <idt+0x218>
ffffffff80004b40:	48 c1 e9 10          	shr    $0x10,%rcx
ffffffff80004b44:	48 c7 c2 9c 08 00 80 	mov    $0xffffffff8000089c,%rdx
ffffffff80004b4b:	66 89 05 e2 49 00 00 	mov    %ax,0x49e2(%rip)        # ffffffff80009534 <idt+0x214>
ffffffff80004b52:	66 89 0d dd 49 00 00 	mov    %cx,0x49dd(%rip)        # ffffffff80009536 <idt+0x216>
ffffffff80004b59:	c7 05 d9 49 00 00 00 	movl   $0x0,0x49d9(%rip)        # ffffffff8000953c <idt+0x21c>
ffffffff80004b60:	00 00 00 
ffffffff80004b63:	66 89 15 d6 49 00 00 	mov    %dx,0x49d6(%rip)        # ffffffff80009540 <idt+0x220>
ffffffff80004b6a:	66 8c c9             	mov    %cs,%cx
ffffffff80004b6d:	66 89 0d ce 49 00 00 	mov    %cx,0x49ce(%rip)        # ffffffff80009542 <idt+0x222>
ffffffff80004b74:	48 89 d1             	mov    %rdx,%rcx
ffffffff80004b77:	48 c1 ea 20          	shr    $0x20,%rdx
ffffffff80004b7b:	89 15 c7 49 00 00    	mov    %edx,0x49c7(%rip)        # ffffffff80009548 <idt+0x228>
ffffffff80004b81:	48 c1 e9 10          	shr    $0x10,%rcx
ffffffff80004b85:	48 c7 c2 dc 08 00 80 	mov    $0xffffffff800008dc,%rdx
ffffffff80004b8c:	66 89 05 b1 49 00 00 	mov    %ax,0x49b1(%rip)        # ffffffff80009544 <idt+0x224>
ffffffff80004b93:	66 89 0d ac 49 00 00 	mov    %cx,0x49ac(%rip)        # ffffffff80009546 <idt+0x226>
ffffffff80004b9a:	c7 05 a8 49 00 00 00 	movl   $0x0,0x49a8(%rip)        # ffffffff8000954c <idt+0x22c>
ffffffff80004ba1:	00 00 00 
ffffffff80004ba4:	66 89 15 a5 49 00 00 	mov    %dx,0x49a5(%rip)        # ffffffff80009550 <idt+0x230>
ffffffff80004bab:	66 8c c9             	mov    %cs,%cx
ffffffff80004bae:	66 89 0d 9d 49 00 00 	mov    %cx,0x499d(%rip)        # ffffffff80009552 <idt+0x232>
ffffffff80004bb5:	48 89 d1             	mov    %rdx,%rcx
ffffffff80004bb8:	48 c1 ea 20          	shr    $0x20,%rdx
ffffffff80004bbc:	89 15 96 49 00 00    	mov    %edx,0x4996(%rip)        # ffffffff80009558 <idt+0x238>
ffffffff80004bc2:	48 c1 e9 10          	shr    $0x10,%rcx
ffffffff80004bc6:	48 c7 c2 1c 09 00 80 	mov    $0xffffffff8000091c,%rdx
ffffffff80004bcd:	66 89 05 80 49 00 00 	mov    %ax,0x4980(%rip)        # ffffffff80009554 <idt+0x234>
ffffffff80004bd4:	66 89 0d 7b 49 00 00 	mov    %cx,0x497b(%rip)        # ffffffff80009556 <idt+0x236>
ffffffff80004bdb:	c7 05 77 49 00 00 00 	movl   $0x0,0x4977(%rip)        # ffffffff8000955c <idt+0x23c>
ffffffff80004be2:	00 00 00 
ffffffff80004be5:	66 89 15 74 49 00 00 	mov    %dx,0x4974(%rip)        # ffffffff80009560 <idt+0x240>
ffffffff80004bec:	66 8c c9             	mov    %cs,%cx
ffffffff80004bef:	66 89 0d 6c 49 00 00 	mov    %cx,0x496c(%rip)        # ffffffff80009562 <idt+0x242>
ffffffff80004bf6:	48 89 d1             	mov    %rdx,%rcx
ffffffff80004bf9:	48 c1 ea 20          	shr    $0x20,%rdx
ffffffff80004bfd:	89 15 65 49 00 00    	mov    %edx,0x4965(%rip)        # ffffffff80009568 <idt+0x248>
ffffffff80004c03:	48 c1 e9 10          	shr    $0x10,%rcx
ffffffff80004c07:	48 c7 c2 5c 09 00 80 	mov    $0xffffffff8000095c,%rdx
ffffffff80004c0e:	66 89 05 4f 49 00 00 	mov    %ax,0x494f(%rip)        # ffffffff80009564 <idt+0x244>
ffffffff80004c15:	66 89 0d 4a 49 00 00 	mov    %cx,0x494a(%rip)        # ffffffff80009566 <idt+0x246>
ffffffff80004c1c:	c7 05 46 49 00 00 00 	movl   $0x0,0x4946(%rip)        # ffffffff8000956c <idt+0x24c>
ffffffff80004c23:	00 00 00 
ffffffff80004c26:	66 89 15 43 49 00 00 	mov    %dx,0x4943(%rip)        # ffffffff80009570 <idt+0x250>
ffffffff80004c2d:	66 8c c9             	mov    %cs,%cx
ffffffff80004c30:	66 89 0d 3b 49 00 00 	mov    %cx,0x493b(%rip)        # ffffffff80009572 <idt+0x252>
ffffffff80004c37:	48 89 d1             	mov    %rdx,%rcx
ffffffff80004c3a:	48 c1 ea 20          	shr    $0x20,%rdx
ffffffff80004c3e:	89 15 34 49 00 00    	mov    %edx,0x4934(%rip)        # ffffffff80009578 <idt+0x258>
ffffffff80004c44:	48 c1 e9 10          	shr    $0x10,%rcx
ffffffff80004c48:	48 c7 c2 9c 09 00 80 	mov    $0xffffffff8000099c,%rdx
ffffffff80004c4f:	66 89 05 1e 49 00 00 	mov    %ax,0x491e(%rip)        # ffffffff80009574 <idt+0x254>
ffffffff80004c56:	66 89 0d 19 49 00 00 	mov    %cx,0x4919(%rip)        # ffffffff80009576 <idt+0x256>
ffffffff80004c5d:	c7 05 15 49 00 00 00 	movl   $0x0,0x4915(%rip)        # ffffffff8000957c <idt+0x25c>
ffffffff80004c64:	00 00 00 
ffffffff80004c67:	66 89 15 12 49 00 00 	mov    %dx,0x4912(%rip)        # ffffffff80009580 <idt+0x260>
ffffffff80004c6e:	66 8c c9             	mov    %cs,%cx
ffffffff80004c71:	66 89 0d 0a 49 00 00 	mov    %cx,0x490a(%rip)        # ffffffff80009582 <idt+0x262>
ffffffff80004c78:	48 89 d1             	mov    %rdx,%rcx
ffffffff80004c7b:	48 c1 ea 20          	shr    $0x20,%rdx
ffffffff80004c7f:	89 15 03 49 00 00    	mov    %edx,0x4903(%rip)        # ffffffff80009588 <idt+0x268>
ffffffff80004c85:	48 c1 e9 10          	shr    $0x10,%rcx
ffffffff80004c89:	48 c7 c2 dc 09 00 80 	mov    $0xffffffff800009dc,%rdx
ffffffff80004c90:	66 89 05 ed 48 00 00 	mov    %ax,0x48ed(%rip)        # ffffffff80009584 <idt+0x264>
ffffffff80004c97:	66 89 0d e8 48 00 00 	mov    %cx,0x48e8(%rip)        # ffffffff80009586 <idt+0x266>
ffffffff80004c9e:	c7 05 e4 48 00 00 00 	movl   $0x0,0x48e4(%rip)        # ffffffff8000958c <idt+0x26c>
ffffffff80004ca5:	00 00 00 
ffffffff80004ca8:	66 89 15 e1 48 00 00 	mov    %dx,0x48e1(%rip)        # ffffffff80009590 <idt+0x270>
ffffffff80004caf:	66 8c c9             	mov    %cs,%cx
ffffffff80004cb2:	66 89 0d d9 48 00 00 	mov    %cx,0x48d9(%rip)        # ffffffff80009592 <idt+0x272>
ffffffff80004cb9:	48 89 d1             	mov    %rdx,%rcx
ffffffff80004cbc:	48 c1 ea 20          	shr    $0x20,%rdx
ffffffff80004cc0:	89 15 d2 48 00 00    	mov    %edx,0x48d2(%rip)        # ffffffff80009598 <idt+0x278>
ffffffff80004cc6:	48 c1 e9 10          	shr    $0x10,%rcx
ffffffff80004cca:	48 c7 c2 1c 0a 00 80 	mov    $0xffffffff80000a1c,%rdx
ffffffff80004cd1:	66 89 05 bc 48 00 00 	mov    %ax,0x48bc(%rip)        # ffffffff80009594 <idt+0x274>
ffffffff80004cd8:	66 89 0d b7 48 00 00 	mov    %cx,0x48b7(%rip)        # ffffffff80009596 <idt+0x276>
ffffffff80004cdf:	c7 05 b3 48 00 00 00 	movl   $0x0,0x48b3(%rip)        # ffffffff8000959c <idt+0x27c>
ffffffff80004ce6:	00 00 00 
ffffffff80004ce9:	66 89 15 b0 48 00 00 	mov    %dx,0x48b0(%rip)        # ffffffff800095a0 <idt+0x280>
ffffffff80004cf0:	66 8c c9             	mov    %cs,%cx
ffffffff80004cf3:	66 89 0d a8 48 00 00 	mov    %cx,0x48a8(%rip)        # ffffffff800095a2 <idt+0x282>
ffffffff80004cfa:	48 89 d1             	mov    %rdx,%rcx
ffffffff80004cfd:	48 c1 ea 20          	shr    $0x20,%rdx
ffffffff80004d01:	89 15 a1 48 00 00    	mov    %edx,0x48a1(%rip)        # ffffffff800095a8 <idt+0x288>
ffffffff80004d07:	48 c1 e9 10          	shr    $0x10,%rcx
ffffffff80004d0b:	48 c7 c2 5c 0a 00 80 	mov    $0xffffffff80000a5c,%rdx
ffffffff80004d12:	66 89 05 8b 48 00 00 	mov    %ax,0x488b(%rip)        # ffffffff800095a4 <idt+0x284>
ffffffff80004d19:	66 89 0d 86 48 00 00 	mov    %cx,0x4886(%rip)        # ffffffff800095a6 <idt+0x286>
ffffffff80004d20:	c7 05 82 48 00 00 00 	movl   $0x0,0x4882(%rip)        # ffffffff800095ac <idt+0x28c>
ffffffff80004d27:	00 00 00 
ffffffff80004d2a:	66 89 15 7f 48 00 00 	mov    %dx,0x487f(%rip)        # ffffffff800095b0 <idt+0x290>
ffffffff80004d31:	66 8c c9             	mov    %cs,%cx
ffffffff80004d34:	66 89 0d 77 48 00 00 	mov    %cx,0x4877(%rip)        # ffffffff800095b2 <idt+0x292>
ffffffff80004d3b:	48 89 d1             	mov    %rdx,%rcx
ffffffff80004d3e:	48 c1 ea 20          	shr    $0x20,%rdx
ffffffff80004d42:	89 15 70 48 00 00    	mov    %edx,0x4870(%rip)        # ffffffff800095b8 <idt+0x298>
ffffffff80004d48:	48 c1 e9 10          	shr    $0x10,%rcx
ffffffff80004d4c:	48 c7 c2 9c 0a 00 80 	mov    $0xffffffff80000a9c,%rdx
ffffffff80004d53:	66 89 05 5a 48 00 00 	mov    %ax,0x485a(%rip)        # ffffffff800095b4 <idt+0x294>
ffffffff80004d5a:	66 89 0d 55 48 00 00 	mov    %cx,0x4855(%rip)        # ffffffff800095b6 <idt+0x296>
ffffffff80004d61:	c7 05 51 48 00 00 00 	movl   $0x0,0x4851(%rip)        # ffffffff800095bc <idt+0x29c>
ffffffff80004d68:	00 00 00 
ffffffff80004d6b:	66 89 15 4e 48 00 00 	mov    %dx,0x484e(%rip)        # ffffffff800095c0 <idt+0x2a0>
ffffffff80004d72:	66 8c c9             	mov    %cs,%cx
ffffffff80004d75:	66 89 0d 46 48 00 00 	mov    %cx,0x4846(%rip)        # ffffffff800095c2 <idt+0x2a2>
ffffffff80004d7c:	48 89 d1             	mov    %rdx,%rcx
ffffffff80004d7f:	48 c1 ea 20          	shr    $0x20,%rdx
ffffffff80004d83:	89 15 3f 48 00 00    	mov    %edx,0x483f(%rip)        # ffffffff800095c8 <idt+0x2a8>
ffffffff80004d89:	48 c1 e9 10          	shr    $0x10,%rcx
ffffffff80004d8d:	48 c7 c2 dc 0a 00 80 	mov    $0xffffffff80000adc,%rdx
ffffffff80004d94:	66 89 05 29 48 00 00 	mov    %ax,0x4829(%rip)        # ffffffff800095c4 <idt+0x2a4>
ffffffff80004d9b:	66 89 0d 24 48 00 00 	mov    %cx,0x4824(%rip)        # ffffffff800095c6 <idt+0x2a6>
ffffffff80004da2:	c7 05 20 48 00 00 00 	movl   $0x0,0x4820(%rip)        # ffffffff800095cc <idt+0x2ac>
ffffffff80004da9:	00 00 00 
ffffffff80004dac:	66 89 15 1d 48 00 00 	mov    %dx,0x481d(%rip)        # ffffffff800095d0 <idt+0x2b0>
ffffffff80004db3:	66 8c c9             	mov    %cs,%cx
ffffffff80004db6:	66 89 0d 15 48 00 00 	mov    %cx,0x4815(%rip)        # ffffffff800095d2 <idt+0x2b2>
ffffffff80004dbd:	48 89 d1             	mov    %rdx,%rcx
ffffffff80004dc0:	48 c1 ea 20          	shr    $0x20,%rdx
ffffffff80004dc4:	89 15 0e 48 00 00    	mov    %edx,0x480e(%rip)        # ffffffff800095d8 <idt+0x2b8>
ffffffff80004dca:	48 c1 e9 10          	shr    $0x10,%rcx
ffffffff80004dce:	48 c7 c2 1c 0b 00 80 	mov    $0xffffffff80000b1c,%rdx
ffffffff80004dd5:	66 89 05 f8 47 00 00 	mov    %ax,0x47f8(%rip)        # ffffffff800095d4 <idt+0x2b4>
ffffffff80004ddc:	66 89 0d f3 47 00 00 	mov    %cx,0x47f3(%rip)        # ffffffff800095d6 <idt+0x2b6>
ffffffff80004de3:	c7 05 ef 47 00 00 00 	movl   $0x0,0x47ef(%rip)        # ffffffff800095dc <idt+0x2bc>
ffffffff80004dea:	00 00 00 
ffffffff80004ded:	66 89 15 ec 47 00 00 	mov    %dx,0x47ec(%rip)        # ffffffff800095e0 <idt+0x2c0>
ffffffff80004df4:	66 8c c9             	mov    %cs,%cx
ffffffff80004df7:	66 89 0d e4 47 00 00 	mov    %cx,0x47e4(%rip)        # ffffffff800095e2 <idt+0x2c2>
ffffffff80004dfe:	48 89 d1             	mov    %rdx,%rcx
ffffffff80004e01:	48 c1 ea 20          	shr    $0x20,%rdx
ffffffff80004e05:	89 15 dd 47 00 00    	mov    %edx,0x47dd(%rip)        # ffffffff800095e8 <idt+0x2c8>
ffffffff80004e0b:	48 c1 e9 10          	shr    $0x10,%rcx
ffffffff80004e0f:	48 c7 c2 5c 0b 00 80 	mov    $0xffffffff80000b5c,%rdx
ffffffff80004e16:	66 89 05 c7 47 00 00 	mov    %ax,0x47c7(%rip)        # ffffffff800095e4 <idt+0x2c4>
ffffffff80004e1d:	66 89 0d c2 47 00 00 	mov    %cx,0x47c2(%rip)        # ffffffff800095e6 <idt+0x2c6>
ffffffff80004e24:	c7 05 be 47 00 00 00 	movl   $0x0,0x47be(%rip)        # ffffffff800095ec <idt+0x2cc>
ffffffff80004e2b:	00 00 00 
ffffffff80004e2e:	66 89 15 bb 47 00 00 	mov    %dx,0x47bb(%rip)        # ffffffff800095f0 <idt+0x2d0>
ffffffff80004e35:	66 8c c9             	mov    %cs,%cx
ffffffff80004e38:	66 89 0d b3 47 00 00 	mov    %cx,0x47b3(%rip)        # ffffffff800095f2 <idt+0x2d2>
ffffffff80004e3f:	48 89 d1             	mov    %rdx,%rcx
ffffffff80004e42:	48 c1 ea 20          	shr    $0x20,%rdx
ffffffff80004e46:	89 15 ac 47 00 00    	mov    %edx,0x47ac(%rip)        # ffffffff800095f8 <idt+0x2d8>
ffffffff80004e4c:	48 c1 e9 10          	shr    $0x10,%rcx
ffffffff80004e50:	48 c7 c2 9c 0b 00 80 	mov    $0xffffffff80000b9c,%rdx
ffffffff80004e57:	66 89 05 96 47 00 00 	mov    %ax,0x4796(%rip)        # ffffffff800095f4 <idt+0x2d4>
ffffffff80004e5e:	66 89 0d 91 47 00 00 	mov    %cx,0x4791(%rip)        # ffffffff800095f6 <idt+0x2d6>
ffffffff80004e65:	c7 05 8d 47 00 00 00 	movl   $0x0,0x478d(%rip)        # ffffffff800095fc <idt+0x2dc>
ffffffff80004e6c:	00 00 00 
ffffffff80004e6f:	66 89 15 8a 47 00 00 	mov    %dx,0x478a(%rip)        # ffffffff80009600 <idt+0x2e0>
ffffffff80004e76:	66 8c c9             	mov    %cs,%cx
ffffffff80004e79:	66 89 0d 82 47 00 00 	mov    %cx,0x4782(%rip)        # ffffffff80009602 <idt+0x2e2>
ffffffff80004e80:	48 89 d1             	mov    %rdx,%rcx
ffffffff80004e83:	48 c1 ea 20          	shr    $0x20,%rdx
ffffffff80004e87:	89 15 7b 47 00 00    	mov    %edx,0x477b(%rip)        # ffffffff80009608 <idt+0x2e8>
ffffffff80004e8d:	48 c1 e9 10          	shr    $0x10,%rcx
ffffffff80004e91:	48 c7 c2 dc 0b 00 80 	mov    $0xffffffff80000bdc,%rdx
ffffffff80004e98:	66 89 05 65 47 00 00 	mov    %ax,0x4765(%rip)        # ffffffff80009604 <idt+0x2e4>
ffffffff80004e9f:	66 89 0d 60 47 00 00 	mov    %cx,0x4760(%rip)        # ffffffff80009606 <idt+0x2e6>
ffffffff80004ea6:	c7 05 5c 47 00 00 00 	movl   $0x0,0x475c(%rip)        # ffffffff8000960c <idt+0x2ec>
ffffffff80004ead:	00 00 00 
ffffffff80004eb0:	66 89 15 59 47 00 00 	mov    %dx,0x4759(%rip)        # ffffffff80009610 <idt+0x2f0>
ffffffff80004eb7:	66 8c c9             	mov    %cs,%cx
ffffffff80004eba:	66 89 05 53 47 00 00 	mov    %ax,0x4753(%rip)        # ffffffff80009614 <idt+0x2f4>
ffffffff80004ec1:	48 89 d0             	mov    %rdx,%rax
ffffffff80004ec4:	48 c1 ea 20          	shr    $0x20,%rdx
ffffffff80004ec8:	48 c1 e8 10          	shr    $0x10,%rax
ffffffff80004ecc:	89 15 46 47 00 00    	mov    %edx,0x4746(%rip)        # ffffffff80009618 <idt+0x2f8>
ffffffff80004ed2:	66 89 05 3d 47 00 00 	mov    %ax,0x473d(%rip)        # ffffffff80009616 <idt+0x2f6>
ffffffff80004ed9:	b8 ff 0f 00 00       	mov    $0xfff,%eax
ffffffff80004ede:	66 89 05 1b 44 00 00 	mov    %ax,0x441b(%rip)        # ffffffff80009300 <idtr>
ffffffff80004ee5:	48 c7 c0 00 93 00 80 	mov    $0xffffffff80009300,%rax
ffffffff80004eec:	66 89 0d 1f 47 00 00 	mov    %cx,0x471f(%rip)        # ffffffff80009612 <idt+0x2f2>
ffffffff80004ef3:	c7 05 1f 47 00 00 00 	movl   $0x0,0x471f(%rip)        # ffffffff8000961c <idt+0x2fc>
ffffffff80004efa:	00 00 00 
ffffffff80004efd:	48 c7 05 fa 43 00 00 	movq   $0xffffffff80009320,0x43fa(%rip)        # ffffffff80009302 <idtr+0x2>
ffffffff80004f04:	20 93 00 80 
ffffffff80004f08:	0f 01 18             	lidt   (%rax)
ffffffff80004f0b:	89 f0                	mov    %esi,%eax
ffffffff80004f0d:	c3                   	ret
ffffffff80004f0e:	66 90                	xchg   %ax,%ax

ffffffff80004f10 <gdt_set_kernel_stack>:
ffffffff80004f10:	f3 0f 1e fa          	endbr64
ffffffff80004f14:	48 89 3d 29 5c 00 00 	mov    %rdi,0x5c29(%rip)        # ffffffff8000ab44 <g_tss+0x4>
ffffffff80004f1b:	c3                   	ret
ffffffff80004f1c:	0f 1f 40 00          	nopl   0x0(%rax)

ffffffff80004f20 <gdt_init>:
ffffffff80004f20:	f3 0f 1e fa          	endbr64
ffffffff80004f24:	48 83 ec 08          	sub    $0x8,%rsp
ffffffff80004f28:	ba 67 00 00 00       	mov    $0x67,%edx
ffffffff80004f2d:	be 3f 00 00 00       	mov    $0x3f,%esi
ffffffff80004f32:	66 0f 6f 05 e6 22 00 	movdqa 0x22e6(%rip),%xmm0        # ffffffff80007220 <CSWTCH.3+0xa60>
ffffffff80004f39:	00 
ffffffff80004f3a:	48 c7 c0 40 ab 00 80 	mov    $0xffffffff8000ab40,%rax
ffffffff80004f41:	66 89 15 a8 5c 00 00 	mov    %dx,0x5ca8(%rip)        # ffffffff8000abf0 <gdt+0x30>
ffffffff80004f48:	b9 89 00 00 00       	mov    $0x89,%ecx
ffffffff80004f4d:	48 c7 c7 a8 ab 00 80 	mov    $0xffffffff8000aba8,%rdi
ffffffff80004f54:	0f 29 05 65 5c 00 00 	movaps %xmm0,0x5c65(%rip)        # ffffffff8000abc0 <gdt>
ffffffff80004f5b:	48 89 c2             	mov    %rax,%rdx
ffffffff80004f5e:	66 0f 6f 05 ca 22 00 	movdqa 0x22ca(%rip),%xmm0        # ffffffff80007230 <CSWTCH.3+0xa70>
ffffffff80004f65:	00 
ffffffff80004f66:	48 c1 ea 10          	shr    $0x10,%rdx
ffffffff80004f6a:	66 89 05 81 5c 00 00 	mov    %ax,0x5c81(%rip)        # ffffffff8000abf2 <gdt+0x32>
ffffffff80004f71:	88 15 7d 5c 00 00    	mov    %dl,0x5c7d(%rip)        # ffffffff8000abf4 <gdt+0x34>
ffffffff80004f77:	48 89 c2             	mov    %rax,%rdx
ffffffff80004f7a:	48 c1 e8 20          	shr    $0x20,%rax
ffffffff80004f7e:	0f 29 05 4b 5c 00 00 	movaps %xmm0,0x5c4b(%rip)        # ffffffff8000abd0 <gdt+0x10>
ffffffff80004f85:	66 0f 6f 05 b3 22 00 	movdqa 0x22b3(%rip),%xmm0        # ffffffff80007240 <CSWTCH.3+0xa80>
ffffffff80004f8c:	00 
ffffffff80004f8d:	48 c1 ea 18          	shr    $0x18,%rdx
ffffffff80004f91:	66 89 35 10 5c 00 00 	mov    %si,0x5c10(%rip)        # ffffffff8000aba8 <gdtr>
ffffffff80004f98:	be 10 00 00 00       	mov    $0x10,%esi
ffffffff80004f9d:	66 89 0d 51 5c 00 00 	mov    %cx,0x5c51(%rip)        # ffffffff8000abf5 <gdt+0x35>
ffffffff80004fa4:	88 15 4d 5c 00 00    	mov    %dl,0x5c4d(%rip)        # ffffffff8000abf7 <gdt+0x37>
ffffffff80004faa:	89 05 48 5c 00 00    	mov    %eax,0x5c48(%rip)        # ffffffff8000abf8 <gdt+0x38>
ffffffff80004fb0:	c7 05 42 5c 00 00 00 	movl   $0x0,0x5c42(%rip)        # ffffffff8000abfc <gdt+0x3c>
ffffffff80004fb7:	00 00 00 
ffffffff80004fba:	48 c7 05 e5 5b 00 00 	movq   $0xffffffff8000abc0,0x5be5(%rip)        # ffffffff8000abaa <gdtr+0x2>
ffffffff80004fc1:	c0 ab 00 80 
ffffffff80004fc5:	0f 29 05 14 5c 00 00 	movaps %xmm0,0x5c14(%rip)        # ffffffff8000abe0 <gdt+0x20>
ffffffff80004fcc:	e8 b8 bc ff ff       	call   ffffffff80000c89 <gdt_load_flush>
ffffffff80004fd1:	bf 30 00 00 00       	mov    $0x30,%edi
ffffffff80004fd6:	48 83 c4 08          	add    $0x8,%rsp
ffffffff80004fda:	e9 a6 bc ff ff       	jmp    ffffffff80000c85 <tss_load>
ffffffff80004fdf:	90                   	nop

ffffffff80004fe0 <syscall_init>:
ffffffff80004fe0:	f3 0f 1e fa          	endbr64
ffffffff80004fe4:	b9 80 00 00 c0       	mov    $0xc0000080,%ecx
ffffffff80004fe9:	0f 32                	rdmsr
ffffffff80004feb:	48 c1 e2 20          	shl    $0x20,%rdx
ffffffff80004fef:	89 c0                	mov    %eax,%eax
ffffffff80004ff1:	48 09 c2             	or     %rax,%rdx
ffffffff80004ff4:	48 89 d0             	mov    %rdx,%rax
ffffffff80004ff7:	48 c1 ea 20          	shr    $0x20,%rdx
ffffffff80004ffb:	48 83 c8 01          	or     $0x1,%rax
ffffffff80004fff:	0f 30                	wrmsr
ffffffff80005001:	31 f6                	xor    %esi,%esi
ffffffff80005003:	b9 81 00 00 c0       	mov    $0xc0000081,%ecx
ffffffff80005008:	ba 08 00 18 00       	mov    $0x180008,%edx
ffffffff8000500d:	89 f0                	mov    %esi,%eax
ffffffff8000500f:	0f 30                	wrmsr
ffffffff80005011:	48 c7 c0 20 0c 00 80 	mov    $0xffffffff80000c20,%rax
ffffffff80005018:	b9 82 00 00 c0       	mov    $0xc0000082,%ecx
ffffffff8000501d:	48 89 c2             	mov    %rax,%rdx
ffffffff80005020:	48 c1 ea 20          	shr    $0x20,%rdx
ffffffff80005024:	0f 30                	wrmsr
ffffffff80005026:	b9 84 00 00 c0       	mov    $0xc0000084,%ecx
ffffffff8000502b:	b8 00 02 00 00       	mov    $0x200,%eax
ffffffff80005030:	89 f2                	mov    %esi,%edx
ffffffff80005032:	0f 30                	wrmsr
ffffffff80005034:	c3                   	ret
ffffffff80005035:	66 66 2e 0f 1f 84 00 	data16 cs nopw 0x0(%rax,%rax,1)
ffffffff8000503c:	00 00 00 00 

ffffffff80005040 <syscall_dispatch>:
ffffffff80005040:	f3 0f 1e fa          	endbr64
ffffffff80005044:	48 85 ff             	test   %rdi,%rdi
ffffffff80005047:	74 0f                	je     ffffffff80005058 <syscall_dispatch+0x18>
ffffffff80005049:	48 c7 c0 ff ff ff ff 	mov    $0xffffffffffffffff,%rax
ffffffff80005050:	c3                   	ret
ffffffff80005051:	0f 1f 80 00 00 00 00 	nopl   0x0(%rax)
ffffffff80005058:	48 83 ec 08          	sub    $0x8,%rsp
ffffffff8000505c:	48 89 f7             	mov    %rsi,%rdi
ffffffff8000505f:	e8 fc 07 00 00       	call   ffffffff80005860 <serial_write>
ffffffff80005064:	31 c0                	xor    %eax,%eax
ffffffff80005066:	48 83 c4 08          	add    $0x8,%rsp
ffffffff8000506a:	c3                   	ret
ffffffff8000506b:	0f 1f 44 00 00       	nopl   0x0(%rax,%rax,1)

ffffffff80005070 <dump_frame>:
ffffffff80005070:	55                   	push   %rbp
ffffffff80005071:	53                   	push   %rbx
ffffffff80005072:	48 89 fb             	mov    %rdi,%rbx
ffffffff80005075:	48 c7 c7 f1 6c 00 80 	mov    $0xffffffff80006cf1,%rdi
ffffffff8000507c:	48 83 ec 08          	sub    $0x8,%rsp
ffffffff80005080:	e8 2b 08 00 00       	call   ffffffff800058b0 <serial_write_line>
ffffffff80005085:	48 c7 c7 09 6d 00 80 	mov    $0xffffffff80006d09,%rdi
ffffffff8000508c:	e8 cf 07 00 00       	call   ffffffff80005860 <serial_write>
ffffffff80005091:	48 8b 7b 78          	mov    0x78(%rbx),%rdi
ffffffff80005095:	e8 76 08 00 00       	call   ffffffff80005910 <serial_write_ulong>
ffffffff8000509a:	48 c7 c7 7a 6b 00 80 	mov    $0xffffffff80006b7a,%rdi
ffffffff800050a1:	e8 ba 07 00 00       	call   ffffffff80005860 <serial_write>
ffffffff800050a6:	48 c7 c7 12 6d 00 80 	mov    $0xffffffff80006d12,%rdi
ffffffff800050ad:	e8 ae 07 00 00       	call   ffffffff80005860 <serial_write>
ffffffff800050b2:	48 8b bb 80 00 00 00 	mov    0x80(%rbx),%rdi
ffffffff800050b9:	e8 c2 0a 00 00       	call   ffffffff80005b80 <serial_write_hex>
ffffffff800050be:	48 c7 c7 7a 6b 00 80 	mov    $0xffffffff80006b7a,%rdi
ffffffff800050c5:	e8 96 07 00 00       	call   ffffffff80005860 <serial_write>
ffffffff800050ca:	48 c7 c7 1a 6d 00 80 	mov    $0xffffffff80006d1a,%rdi
ffffffff800050d1:	e8 8a 07 00 00       	call   ffffffff80005860 <serial_write>
ffffffff800050d6:	48 8b bb 88 00 00 00 	mov    0x88(%rbx),%rdi
ffffffff800050dd:	e8 9e 0a 00 00       	call   ffffffff80005b80 <serial_write_hex>
ffffffff800050e2:	48 c7 c7 7a 6b 00 80 	mov    $0xffffffff80006b7a,%rdi
ffffffff800050e9:	e8 72 07 00 00       	call   ffffffff80005860 <serial_write>
ffffffff800050ee:	48 c7 c7 23 6d 00 80 	mov    $0xffffffff80006d23,%rdi
ffffffff800050f5:	e8 66 07 00 00       	call   ffffffff80005860 <serial_write>
ffffffff800050fa:	48 8b bb 90 00 00 00 	mov    0x90(%rbx),%rdi
ffffffff80005101:	e8 7a 0a 00 00       	call   ffffffff80005b80 <serial_write_hex>
ffffffff80005106:	48 c7 c7 7a 6b 00 80 	mov    $0xffffffff80006b7a,%rdi
ffffffff8000510d:	e8 4e 07 00 00       	call   ffffffff80005860 <serial_write>
ffffffff80005112:	48 c7 c7 2c 6d 00 80 	mov    $0xffffffff80006d2c,%rdi
ffffffff80005119:	e8 42 07 00 00       	call   ffffffff80005860 <serial_write>
ffffffff8000511e:	48 8b bb 98 00 00 00 	mov    0x98(%rbx),%rdi
ffffffff80005125:	e8 56 0a 00 00       	call   ffffffff80005b80 <serial_write_hex>
ffffffff8000512a:	48 c7 c7 7a 6b 00 80 	mov    $0xffffffff80006b7a,%rdi
ffffffff80005131:	e8 2a 07 00 00       	call   ffffffff80005860 <serial_write>
ffffffff80005136:	0f 20 d5             	mov    %cr2,%rbp
ffffffff80005139:	48 c7 c7 35 6d 00 80 	mov    $0xffffffff80006d35,%rdi
ffffffff80005140:	e8 1b 07 00 00       	call   ffffffff80005860 <serial_write>
ffffffff80005145:	48 89 ef             	mov    %rbp,%rdi
ffffffff80005148:	e8 33 0a 00 00       	call   ffffffff80005b80 <serial_write_hex>
ffffffff8000514d:	48 c7 c7 7a 6b 00 80 	mov    $0xffffffff80006b7a,%rdi
ffffffff80005154:	e8 07 07 00 00       	call   ffffffff80005860 <serial_write>
ffffffff80005159:	48 c7 c7 3e 6d 00 80 	mov    $0xffffffff80006d3e,%rdi
ffffffff80005160:	e8 fb 06 00 00       	call   ffffffff80005860 <serial_write>
ffffffff80005165:	48 8b 3b             	mov    (%rbx),%rdi
ffffffff80005168:	e8 13 0a 00 00       	call   ffffffff80005b80 <serial_write_hex>
ffffffff8000516d:	48 c7 c7 7a 6b 00 80 	mov    $0xffffffff80006b7a,%rdi
ffffffff80005174:	e8 e7 06 00 00       	call   ffffffff80005860 <serial_write>
ffffffff80005179:	48 c7 c7 44 6d 00 80 	mov    $0xffffffff80006d44,%rdi
ffffffff80005180:	e8 db 06 00 00       	call   ffffffff80005860 <serial_write>
ffffffff80005185:	48 8b 7b 08          	mov    0x8(%rbx),%rdi
ffffffff80005189:	e8 f2 09 00 00       	call   ffffffff80005b80 <serial_write_hex>
ffffffff8000518e:	48 c7 c7 7a 6b 00 80 	mov    $0xffffffff80006b7a,%rdi
ffffffff80005195:	e8 c6 06 00 00       	call   ffffffff80005860 <serial_write>
ffffffff8000519a:	48 c7 c7 4a 6d 00 80 	mov    $0xffffffff80006d4a,%rdi
ffffffff800051a1:	e8 ba 06 00 00       	call   ffffffff80005860 <serial_write>
ffffffff800051a6:	48 8b 7b 10          	mov    0x10(%rbx),%rdi
ffffffff800051aa:	e8 d1 09 00 00       	call   ffffffff80005b80 <serial_write_hex>
ffffffff800051af:	48 c7 c7 7a 6b 00 80 	mov    $0xffffffff80006b7a,%rdi
ffffffff800051b6:	e8 a5 06 00 00       	call   ffffffff80005860 <serial_write>
ffffffff800051bb:	48 c7 c7 50 6d 00 80 	mov    $0xffffffff80006d50,%rdi
ffffffff800051c2:	e8 99 06 00 00       	call   ffffffff80005860 <serial_write>
ffffffff800051c7:	48 8b 7b 18          	mov    0x18(%rbx),%rdi
ffffffff800051cb:	e8 b0 09 00 00       	call   ffffffff80005b80 <serial_write_hex>
ffffffff800051d0:	48 c7 c7 7a 6b 00 80 	mov    $0xffffffff80006b7a,%rdi
ffffffff800051d7:	e8 84 06 00 00       	call   ffffffff80005860 <serial_write>
ffffffff800051dc:	48 c7 c7 56 6d 00 80 	mov    $0xffffffff80006d56,%rdi
ffffffff800051e3:	e8 78 06 00 00       	call   ffffffff80005860 <serial_write>
ffffffff800051e8:	48 8b 7b 20          	mov    0x20(%rbx),%rdi
ffffffff800051ec:	e8 8f 09 00 00       	call   ffffffff80005b80 <serial_write_hex>
ffffffff800051f1:	48 c7 c7 7a 6b 00 80 	mov    $0xffffffff80006b7a,%rdi
ffffffff800051f8:	e8 63 06 00 00       	call   ffffffff80005860 <serial_write>
ffffffff800051fd:	48 c7 c7 5c 6d 00 80 	mov    $0xffffffff80006d5c,%rdi
ffffffff80005204:	e8 57 06 00 00       	call   ffffffff80005860 <serial_write>
ffffffff80005209:	48 8b 7b 28          	mov    0x28(%rbx),%rdi
ffffffff8000520d:	e8 6e 09 00 00       	call   ffffffff80005b80 <serial_write_hex>
ffffffff80005212:	48 c7 c7 7a 6b 00 80 	mov    $0xffffffff80006b7a,%rdi
ffffffff80005219:	e8 42 06 00 00       	call   ffffffff80005860 <serial_write>
ffffffff8000521e:	48 c7 c7 62 6d 00 80 	mov    $0xffffffff80006d62,%rdi
ffffffff80005225:	e8 36 06 00 00       	call   ffffffff80005860 <serial_write>
ffffffff8000522a:	48 8b 7b 30          	mov    0x30(%rbx),%rdi
ffffffff8000522e:	e8 4d 09 00 00       	call   ffffffff80005b80 <serial_write_hex>
ffffffff80005233:	48 c7 c7 7a 6b 00 80 	mov    $0xffffffff80006b7a,%rdi
ffffffff8000523a:	e8 21 06 00 00       	call   ffffffff80005860 <serial_write>
ffffffff8000523f:	48 c7 c7 68 6d 00 80 	mov    $0xffffffff80006d68,%rdi
ffffffff80005246:	e8 15 06 00 00       	call   ffffffff80005860 <serial_write>
ffffffff8000524b:	48 8b 7b 38          	mov    0x38(%rbx),%rdi
ffffffff8000524f:	e8 2c 09 00 00       	call   ffffffff80005b80 <serial_write_hex>
ffffffff80005254:	48 c7 c7 7a 6b 00 80 	mov    $0xffffffff80006b7a,%rdi
ffffffff8000525b:	e8 00 06 00 00       	call   ffffffff80005860 <serial_write>
ffffffff80005260:	48 c7 c7 6d 6d 00 80 	mov    $0xffffffff80006d6d,%rdi
ffffffff80005267:	e8 f4 05 00 00       	call   ffffffff80005860 <serial_write>
ffffffff8000526c:	48 8b 7b 40          	mov    0x40(%rbx),%rdi
ffffffff80005270:	e8 0b 09 00 00       	call   ffffffff80005b80 <serial_write_hex>
ffffffff80005275:	48 c7 c7 7a 6b 00 80 	mov    $0xffffffff80006b7a,%rdi
ffffffff8000527c:	e8 df 05 00 00       	call   ffffffff80005860 <serial_write>
ffffffff80005281:	48 c7 c7 72 6d 00 80 	mov    $0xffffffff80006d72,%rdi
ffffffff80005288:	e8 d3 05 00 00       	call   ffffffff80005860 <serial_write>
ffffffff8000528d:	48 8b 7b 48          	mov    0x48(%rbx),%rdi
ffffffff80005291:	e8 ea 08 00 00       	call   ffffffff80005b80 <serial_write_hex>
ffffffff80005296:	48 c7 c7 7a 6b 00 80 	mov    $0xffffffff80006b7a,%rdi
ffffffff8000529d:	e8 be 05 00 00       	call   ffffffff80005860 <serial_write>
ffffffff800052a2:	48 c7 c7 78 6d 00 80 	mov    $0xffffffff80006d78,%rdi
ffffffff800052a9:	e8 b2 05 00 00       	call   ffffffff80005860 <serial_write>
ffffffff800052ae:	48 8b 7b 50          	mov    0x50(%rbx),%rdi
ffffffff800052b2:	e8 c9 08 00 00       	call   ffffffff80005b80 <serial_write_hex>
ffffffff800052b7:	48 c7 c7 7a 6b 00 80 	mov    $0xffffffff80006b7a,%rdi
ffffffff800052be:	e8 9d 05 00 00       	call   ffffffff80005860 <serial_write>
ffffffff800052c3:	48 c7 c7 7e 6d 00 80 	mov    $0xffffffff80006d7e,%rdi
ffffffff800052ca:	e8 91 05 00 00       	call   ffffffff80005860 <serial_write>
ffffffff800052cf:	48 8b 7b 58          	mov    0x58(%rbx),%rdi
ffffffff800052d3:	e8 a8 08 00 00       	call   ffffffff80005b80 <serial_write_hex>
ffffffff800052d8:	48 c7 c7 7a 6b 00 80 	mov    $0xffffffff80006b7a,%rdi
ffffffff800052df:	e8 7c 05 00 00       	call   ffffffff80005860 <serial_write>
ffffffff800052e4:	48 c7 c7 84 6d 00 80 	mov    $0xffffffff80006d84,%rdi
ffffffff800052eb:	e8 70 05 00 00       	call   ffffffff80005860 <serial_write>
ffffffff800052f0:	48 8b 7b 60          	mov    0x60(%rbx),%rdi
ffffffff800052f4:	e8 87 08 00 00       	call   ffffffff80005b80 <serial_write_hex>
ffffffff800052f9:	48 c7 c7 7a 6b 00 80 	mov    $0xffffffff80006b7a,%rdi
ffffffff80005300:	e8 5b 05 00 00       	call   ffffffff80005860 <serial_write>
ffffffff80005305:	48 c7 c7 8a 6d 00 80 	mov    $0xffffffff80006d8a,%rdi
ffffffff8000530c:	e8 4f 05 00 00       	call   ffffffff80005860 <serial_write>
ffffffff80005311:	48 8b 7b 68          	mov    0x68(%rbx),%rdi
ffffffff80005315:	e8 66 08 00 00       	call   ffffffff80005b80 <serial_write_hex>
ffffffff8000531a:	48 c7 c7 7a 6b 00 80 	mov    $0xffffffff80006b7a,%rdi
ffffffff80005321:	e8 3a 05 00 00       	call   ffffffff80005860 <serial_write>
ffffffff80005326:	48 c7 c7 90 6d 00 80 	mov    $0xffffffff80006d90,%rdi
ffffffff8000532d:	e8 2e 05 00 00       	call   ffffffff80005860 <serial_write>
ffffffff80005332:	48 8b 7b 70          	mov    0x70(%rbx),%rdi
ffffffff80005336:	e8 45 08 00 00       	call   ffffffff80005b80 <serial_write_hex>
ffffffff8000533b:	48 83 c4 08          	add    $0x8,%rsp
ffffffff8000533f:	48 c7 c7 7a 6b 00 80 	mov    $0xffffffff80006b7a,%rdi
ffffffff80005346:	5b                   	pop    %rbx
ffffffff80005347:	5d                   	pop    %rbp
ffffffff80005348:	e9 13 05 00 00       	jmp    ffffffff80005860 <serial_write>
ffffffff8000534d:	0f 1f 00             	nopl   (%rax)

ffffffff80005350 <breakpoint_handler>:
ffffffff80005350:	f3 0f 1e fa          	endbr64
ffffffff80005354:	53                   	push   %rbx
ffffffff80005355:	48 8b 47 78          	mov    0x78(%rdi),%rax
ffffffff80005359:	48 89 fb             	mov    %rdi,%rbx
ffffffff8000535c:	48 8b 3c c5 80 66 00 	mov    -0x7fff9980(,%rax,8),%rdi
ffffffff80005363:	80 
ffffffff80005364:	e8 47 05 00 00       	call   ffffffff800058b0 <serial_write_line>
ffffffff80005369:	48 89 df             	mov    %rbx,%rdi
ffffffff8000536c:	5b                   	pop    %rbx
ffffffff8000536d:	e9 fe fc ff ff       	jmp    ffffffff80005070 <dump_frame>
ffffffff80005372:	66 66 2e 0f 1f 84 00 	data16 cs nopw 0x0(%rax,%rax,1)
ffffffff80005379:	00 00 00 00 
ffffffff8000537d:	0f 1f 00             	nopl   (%rax)

ffffffff80005380 <default_handler>:
ffffffff80005380:	f3 0f 1e fa          	endbr64
ffffffff80005384:	53                   	push   %rbx
ffffffff80005385:	48 8b 47 78          	mov    0x78(%rdi),%rax
ffffffff80005389:	48 89 fb             	mov    %rdi,%rbx
ffffffff8000538c:	48 83 f8 1f          	cmp    $0x1f,%rax
ffffffff80005390:	77 22                	ja     ffffffff800053b4 <default_handler+0x34>
ffffffff80005392:	48 8b 3c c5 80 66 00 	mov    -0x7fff9980(,%rax,8),%rdi
ffffffff80005399:	80 
ffffffff8000539a:	e8 c1 04 00 00       	call   ffffffff80005860 <serial_write>
ffffffff8000539f:	48 89 df             	mov    %rbx,%rdi
ffffffff800053a2:	e8 c9 fc ff ff       	call   ffffffff80005070 <dump_frame>
ffffffff800053a7:	66 0f 1f 84 00 00 00 	nopw   0x0(%rax,%rax,1)
ffffffff800053ae:	00 00 
ffffffff800053b0:	fa                   	cli
ffffffff800053b1:	f4                   	hlt
ffffffff800053b2:	eb fc                	jmp    ffffffff800053b0 <default_handler+0x30>
ffffffff800053b4:	48 c7 c7 96 6d 00 80 	mov    $0xffffffff80006d96,%rdi
ffffffff800053bb:	e8 a0 04 00 00       	call   ffffffff80005860 <serial_write>
ffffffff800053c0:	48 8b 7b 78          	mov    0x78(%rbx),%rdi
ffffffff800053c4:	e8 47 05 00 00       	call   ffffffff80005910 <serial_write_ulong>
ffffffff800053c9:	bf 0a 00 00 00       	mov    $0xa,%edi
ffffffff800053ce:	5b                   	pop    %rbx
ffffffff800053cf:	e9 5c 04 00 00       	jmp    ffffffff80005830 <serial_write_char>
ffffffff800053d4:	66 66 2e 0f 1f 84 00 	data16 cs nopw 0x0(%rax,%rax,1)
ffffffff800053db:	00 00 00 00 
ffffffff800053df:	90                   	nop

ffffffff800053e0 <exceptions_init>:
ffffffff800053e0:	f3 0f 1e fa          	endbr64
ffffffff800053e4:	48 83 ec 08          	sub    $0x8,%rsp
ffffffff800053e8:	48 c7 c7 80 53 00 80 	mov    $0xffffffff80005380,%rdi
ffffffff800053ef:	e8 ec ed ff ff       	call   ffffffff800041e0 <register_default_handler>
ffffffff800053f4:	48 c7 c6 50 53 00 80 	mov    $0xffffffff80005350,%rsi
ffffffff800053fb:	bf 03 00 00 00       	mov    $0x3,%edi
ffffffff80005400:	48 83 c4 08          	add    $0x8,%rsp
ffffffff80005404:	e9 e7 ed ff ff       	jmp    ffffffff800041f0 <register_interrupt_handler>
ffffffff80005409:	0f 1f 80 00 00 00 00 	nopl   0x0(%rax)

ffffffff80005410 <timer_handler>:
ffffffff80005410:	f3 0f 1e fa          	endbr64
ffffffff80005414:	48 83 ec 08          	sub    $0x8,%rsp
ffffffff80005418:	83 05 e9 57 00 00 01 	addl   $0x1,0x57e9(%rip)        # ffffffff8000ac08 <g_timer_ticks>
ffffffff8000541f:	48 c7 c7 48 6f 00 80 	mov    $0xffffffff80006f48,%rdi
ffffffff80005426:	e8 35 04 00 00       	call   ffffffff80005860 <serial_write>
ffffffff8000542b:	31 c0                	xor    %eax,%eax
ffffffff8000542d:	48 83 c4 08          	add    $0x8,%rsp
ffffffff80005431:	e9 da e6 ff ff       	jmp    ffffffff80003b10 <schedule>
ffffffff80005436:	66 2e 0f 1f 84 00 00 	cs nopw 0x0(%rax,%rax,1)
ffffffff8000543d:	00 00 00 

ffffffff80005440 <timer_init>:
ffffffff80005440:	f3 0f 1e fa          	endbr64
ffffffff80005444:	55                   	push   %rbp
ffffffff80005445:	53                   	push   %rbx
ffffffff80005446:	48 83 ec 08          	sub    $0x8,%rsp
ffffffff8000544a:	85 ff                	test   %edi,%edi
ffffffff8000544c:	74 52                	je     ffffffff800054a0 <timer_init+0x60>
ffffffff8000544e:	b8 de 34 12 00       	mov    $0x1234de,%eax
ffffffff80005453:	31 d2                	xor    %edx,%edx
ffffffff80005455:	f7 f7                	div    %edi
ffffffff80005457:	0f b6 e8             	movzbl %al,%ebp
ffffffff8000545a:	0f b6 dc             	movzbl %ah,%ebx
ffffffff8000545d:	be 34 00 00 00       	mov    $0x34,%esi
ffffffff80005462:	bf 43 00 00 00       	mov    $0x43,%edi
ffffffff80005467:	e8 c4 09 00 00       	call   ffffffff80005e30 <outb>
ffffffff8000546c:	89 ee                	mov    %ebp,%esi
ffffffff8000546e:	bf 40 00 00 00       	mov    $0x40,%edi
ffffffff80005473:	e8 b8 09 00 00       	call   ffffffff80005e30 <outb>
ffffffff80005478:	89 de                	mov    %ebx,%esi
ffffffff8000547a:	bf 40 00 00 00       	mov    $0x40,%edi
ffffffff8000547f:	e8 ac 09 00 00       	call   ffffffff80005e30 <outb>
ffffffff80005484:	48 83 c4 08          	add    $0x8,%rsp
ffffffff80005488:	bf 20 00 00 00       	mov    $0x20,%edi
ffffffff8000548d:	48 c7 c6 10 54 00 80 	mov    $0xffffffff80005410,%rsi
ffffffff80005494:	5b                   	pop    %rbx
ffffffff80005495:	5d                   	pop    %rbp
ffffffff80005496:	e9 55 ed ff ff       	jmp    ffffffff800041f0 <register_interrupt_handler>
ffffffff8000549b:	0f 1f 44 00 00       	nopl   0x0(%rax,%rax,1)
ffffffff800054a0:	bb 2e 00 00 00       	mov    $0x2e,%ebx
ffffffff800054a5:	bd 9b 00 00 00       	mov    $0x9b,%ebp
ffffffff800054aa:	eb b1                	jmp    ffffffff8000545d <timer_init+0x1d>
ffffffff800054ac:	0f 1f 40 00          	nopl   0x0(%rax)

ffffffff800054b0 <on_key_event>:
ffffffff800054b0:	f3 0f 1e fa          	endbr64
ffffffff800054b4:	48 83 ec 08          	sub    $0x8,%rsp
ffffffff800054b8:	bf 60 00 00 00       	mov    $0x60,%edi
ffffffff800054bd:	e8 5e 09 00 00       	call   ffffffff80005e20 <inb>
ffffffff800054c2:	3c e0                	cmp    $0xe0,%al
ffffffff800054c4:	0f 84 e6 00 00 00    	je     ffffffff800055b0 <on_key_event+0x100>
ffffffff800054ca:	84 c0                	test   %al,%al
ffffffff800054cc:	0f 88 a6 00 00 00    	js     ffffffff80005578 <on_key_event+0xc8>
ffffffff800054d2:	8b 15 40 57 00 00    	mov    0x5740(%rip),%edx        # ffffffff8000ac18 <extended>
ffffffff800054d8:	85 d2                	test   %edx,%edx
ffffffff800054da:	75 4c                	jne    ffffffff80005528 <on_key_event+0x78>
ffffffff800054dc:	3c 1c                	cmp    $0x1c,%al
ffffffff800054de:	0f 84 ac 00 00 00    	je     ffffffff80005590 <on_key_event+0xe0>
ffffffff800054e4:	83 e8 02             	sub    $0x2,%eax
ffffffff800054e7:	3c 37                	cmp    $0x37,%al
ffffffff800054e9:	77 4e                	ja     ffffffff80005539 <on_key_event+0x89>
ffffffff800054eb:	0f b6 c0             	movzbl %al,%eax
ffffffff800054ee:	0f b6 b8 c0 67 00 80 	movzbl -0x7fff9840(%rax),%edi
ffffffff800054f5:	40 84 ff             	test   %dil,%dil
ffffffff800054f8:	74 3f                	je     ffffffff80005539 <on_key_event+0x89>
ffffffff800054fa:	40 0f b6 c7          	movzbl %dil,%eax
ffffffff800054fe:	40 0f be ff          	movsbl %dil,%edi
ffffffff80005502:	48 c1 e0 20          	shl    $0x20,%rax
ffffffff80005506:	48 83 c8 01          	or     $0x1,%rax
ffffffff8000550a:	48 89 05 ff 56 00 00 	mov    %rax,0x56ff(%rip)        # ffffffff8000ac10 <g_last>
ffffffff80005511:	e8 1a 03 00 00       	call   ffffffff80005830 <serial_write_char>
ffffffff80005516:	bf 01 00 00 00       	mov    $0x1,%edi
ffffffff8000551b:	48 83 c4 08          	add    $0x8,%rsp
ffffffff8000551f:	e9 ec 01 00 00       	jmp    ffffffff80005710 <pic_send_eoi>
ffffffff80005524:	0f 1f 40 00          	nopl   0x0(%rax)
ffffffff80005528:	83 e8 48             	sub    $0x48,%eax
ffffffff8000552b:	3c 08                	cmp    $0x8,%al
ffffffff8000552d:	76 21                	jbe    ffffffff80005550 <on_key_event+0xa0>
ffffffff8000552f:	c7 05 df 56 00 00 00 	movl   $0x0,0x56df(%rip)        # ffffffff8000ac18 <extended>
ffffffff80005536:	00 00 00 
ffffffff80005539:	bf 01 00 00 00       	mov    $0x1,%edi
ffffffff8000553e:	48 83 c4 08          	add    $0x8,%rsp
ffffffff80005542:	e9 c9 01 00 00       	jmp    ffffffff80005710 <pic_send_eoi>
ffffffff80005547:	66 0f 1f 84 00 00 00 	nopw   0x0(%rax,%rax,1)
ffffffff8000554e:	00 00 
ffffffff80005550:	c7 05 be 56 00 00 00 	movl   $0x0,0x56be(%rip)        # ffffffff8000ac18 <extended>
ffffffff80005557:	00 00 00 
ffffffff8000555a:	0f b6 c0             	movzbl %al,%eax
ffffffff8000555d:	8b 04 85 80 67 00 80 	mov    -0x7fff9880(,%rax,4),%eax
ffffffff80005564:	85 c0                	test   %eax,%eax
ffffffff80005566:	74 d1                	je     ffffffff80005539 <on_key_event+0x89>
ffffffff80005568:	48 89 05 a1 56 00 00 	mov    %rax,0x56a1(%rip)        # ffffffff8000ac10 <g_last>
ffffffff8000556f:	eb c8                	jmp    ffffffff80005539 <on_key_event+0x89>
ffffffff80005571:	0f 1f 80 00 00 00 00 	nopl   0x0(%rax)
ffffffff80005578:	c7 05 96 56 00 00 00 	movl   $0x0,0x5696(%rip)        # ffffffff8000ac18 <extended>
ffffffff8000557f:	00 00 00 
ffffffff80005582:	bf 01 00 00 00       	mov    $0x1,%edi
ffffffff80005587:	48 83 c4 08          	add    $0x8,%rsp
ffffffff8000558b:	e9 80 01 00 00       	jmp    ffffffff80005710 <pic_send_eoi>
ffffffff80005590:	48 c7 05 75 56 00 00 	movq   $0xd,0x5675(%rip)        # ffffffff8000ac10 <g_last>
ffffffff80005597:	0d 00 00 00 
ffffffff8000559b:	bf 01 00 00 00       	mov    $0x1,%edi
ffffffff800055a0:	48 83 c4 08          	add    $0x8,%rsp
ffffffff800055a4:	e9 67 01 00 00       	jmp    ffffffff80005710 <pic_send_eoi>
ffffffff800055a9:	0f 1f 80 00 00 00 00 	nopl   0x0(%rax)
ffffffff800055b0:	c7 05 5e 56 00 00 01 	movl   $0x1,0x565e(%rip)        # ffffffff8000ac18 <extended>
ffffffff800055b7:	00 00 00 
ffffffff800055ba:	bf 01 00 00 00       	mov    $0x1,%edi
ffffffff800055bf:	48 83 c4 08          	add    $0x8,%rsp
ffffffff800055c3:	e9 48 01 00 00       	jmp    ffffffff80005710 <pic_send_eoi>
ffffffff800055c8:	0f 1f 84 00 00 00 00 	nopl   0x0(%rax,%rax,1)
ffffffff800055cf:	00 

ffffffff800055d0 <keyboard_init>:
ffffffff800055d0:	f3 0f 1e fa          	endbr64
ffffffff800055d4:	48 c7 c6 b0 54 00 80 	mov    $0xffffffff800054b0,%rsi
ffffffff800055db:	bf 21 00 00 00       	mov    $0x21,%edi
ffffffff800055e0:	e9 0b ec ff ff       	jmp    ffffffff800041f0 <register_interrupt_handler>
ffffffff800055e5:	66 66 2e 0f 1f 84 00 	data16 cs nopw 0x0(%rax,%rax,1)
ffffffff800055ec:	00 00 00 00 

ffffffff800055f0 <keyboard_last>:
ffffffff800055f0:	f3 0f 1e fa          	endbr64
ffffffff800055f4:	48 8b 05 15 56 00 00 	mov    0x5615(%rip),%rax        # ffffffff8000ac10 <g_last>
ffffffff800055fb:	48 ba ff ff ff ff ff 	movabs $0xffffffffff,%rdx
ffffffff80005602:	00 00 00 
ffffffff80005605:	c7 05 01 56 00 00 00 	movl   $0x0,0x5601(%rip)        # ffffffff8000ac10 <g_last>
ffffffff8000560c:	00 00 00 
ffffffff8000560f:	c6 05 fe 55 00 00 00 	movb   $0x0,0x55fe(%rip)        # ffffffff8000ac14 <g_last+0x4>
ffffffff80005616:	48 21 d0             	and    %rdx,%rax
ffffffff80005619:	c3                   	ret
ffffffff8000561a:	66 0f 1f 44 00 00    	nopw   0x0(%rax,%rax,1)

ffffffff80005620 <pic_remap>:
ffffffff80005620:	f3 0f 1e fa          	endbr64
ffffffff80005624:	41 55                	push   %r13
ffffffff80005626:	41 89 fd             	mov    %edi,%r13d
ffffffff80005629:	bf 21 00 00 00       	mov    $0x21,%edi
ffffffff8000562e:	41 54                	push   %r12
ffffffff80005630:	41 89 f4             	mov    %esi,%r12d
ffffffff80005633:	55                   	push   %rbp
ffffffff80005634:	53                   	push   %rbx
ffffffff80005635:	48 83 ec 08          	sub    $0x8,%rsp
ffffffff80005639:	e8 e2 07 00 00       	call   ffffffff80005e20 <inb>
ffffffff8000563e:	bf a1 00 00 00       	mov    $0xa1,%edi
ffffffff80005643:	89 c5                	mov    %eax,%ebp
ffffffff80005645:	e8 d6 07 00 00       	call   ffffffff80005e20 <inb>
ffffffff8000564a:	be 11 00 00 00       	mov    $0x11,%esi
ffffffff8000564f:	bf 20 00 00 00       	mov    $0x20,%edi
ffffffff80005654:	89 c3                	mov    %eax,%ebx
ffffffff80005656:	e8 d5 07 00 00       	call   ffffffff80005e30 <outb>
ffffffff8000565b:	e8 f0 07 00 00       	call   ffffffff80005e50 <io_wait>
ffffffff80005660:	be 11 00 00 00       	mov    $0x11,%esi
ffffffff80005665:	bf a0 00 00 00       	mov    $0xa0,%edi
ffffffff8000566a:	e8 c1 07 00 00       	call   ffffffff80005e30 <outb>
ffffffff8000566f:	e8 dc 07 00 00       	call   ffffffff80005e50 <io_wait>
ffffffff80005674:	41 0f b6 f5          	movzbl %r13b,%esi
ffffffff80005678:	bf 21 00 00 00       	mov    $0x21,%edi
ffffffff8000567d:	e8 ae 07 00 00       	call   ffffffff80005e30 <outb>
ffffffff80005682:	e8 c9 07 00 00       	call   ffffffff80005e50 <io_wait>
ffffffff80005687:	41 0f b6 f4          	movzbl %r12b,%esi
ffffffff8000568b:	bf a1 00 00 00       	mov    $0xa1,%edi
ffffffff80005690:	e8 9b 07 00 00       	call   ffffffff80005e30 <outb>
ffffffff80005695:	e8 b6 07 00 00       	call   ffffffff80005e50 <io_wait>
ffffffff8000569a:	be 04 00 00 00       	mov    $0x4,%esi
ffffffff8000569f:	bf 21 00 00 00       	mov    $0x21,%edi
ffffffff800056a4:	e8 87 07 00 00       	call   ffffffff80005e30 <outb>
ffffffff800056a9:	e8 a2 07 00 00       	call   ffffffff80005e50 <io_wait>
ffffffff800056ae:	be 02 00 00 00       	mov    $0x2,%esi
ffffffff800056b3:	bf a1 00 00 00       	mov    $0xa1,%edi
ffffffff800056b8:	e8 73 07 00 00       	call   ffffffff80005e30 <outb>
ffffffff800056bd:	e8 8e 07 00 00       	call   ffffffff80005e50 <io_wait>
ffffffff800056c2:	be 01 00 00 00       	mov    $0x1,%esi
ffffffff800056c7:	bf 21 00 00 00       	mov    $0x21,%edi
ffffffff800056cc:	e8 5f 07 00 00       	call   ffffffff80005e30 <outb>
ffffffff800056d1:	e8 7a 07 00 00       	call   ffffffff80005e50 <io_wait>
ffffffff800056d6:	be 01 00 00 00       	mov    $0x1,%esi
ffffffff800056db:	bf a1 00 00 00       	mov    $0xa1,%edi
ffffffff800056e0:	e8 4b 07 00 00       	call   ffffffff80005e30 <outb>
ffffffff800056e5:	e8 66 07 00 00       	call   ffffffff80005e50 <io_wait>
ffffffff800056ea:	40 0f b6 f5          	movzbl %bpl,%esi
ffffffff800056ee:	bf 21 00 00 00       	mov    $0x21,%edi
ffffffff800056f3:	e8 38 07 00 00       	call   ffffffff80005e30 <outb>
ffffffff800056f8:	48 83 c4 08          	add    $0x8,%rsp
ffffffff800056fc:	0f b6 f3             	movzbl %bl,%esi
ffffffff800056ff:	bf a1 00 00 00       	mov    $0xa1,%edi
ffffffff80005704:	5b                   	pop    %rbx
ffffffff80005705:	5d                   	pop    %rbp
ffffffff80005706:	41 5c                	pop    %r12
ffffffff80005708:	41 5d                	pop    %r13
ffffffff8000570a:	e9 21 07 00 00       	jmp    ffffffff80005e30 <outb>
ffffffff8000570f:	90                   	nop

ffffffff80005710 <pic_send_eoi>:
ffffffff80005710:	f3 0f 1e fa          	endbr64
ffffffff80005714:	40 80 ff 07          	cmp    $0x7,%dil
ffffffff80005718:	77 16                	ja     ffffffff80005730 <pic_send_eoi+0x20>
ffffffff8000571a:	be 20 00 00 00       	mov    $0x20,%esi
ffffffff8000571f:	bf 20 00 00 00       	mov    $0x20,%edi
ffffffff80005724:	e9 07 07 00 00       	jmp    ffffffff80005e30 <outb>
ffffffff80005729:	0f 1f 80 00 00 00 00 	nopl   0x0(%rax)
ffffffff80005730:	48 83 ec 08          	sub    $0x8,%rsp
ffffffff80005734:	be 20 00 00 00       	mov    $0x20,%esi
ffffffff80005739:	bf a0 00 00 00       	mov    $0xa0,%edi
ffffffff8000573e:	e8 ed 06 00 00       	call   ffffffff80005e30 <outb>
ffffffff80005743:	be 20 00 00 00       	mov    $0x20,%esi
ffffffff80005748:	bf 20 00 00 00       	mov    $0x20,%edi
ffffffff8000574d:	48 83 c4 08          	add    $0x8,%rsp
ffffffff80005751:	e9 da 06 00 00       	jmp    ffffffff80005e30 <outb>
ffffffff80005756:	66 2e 0f 1f 84 00 00 	cs nopw 0x0(%rax,%rax,1)
ffffffff8000575d:	00 00 00 

ffffffff80005760 <pic_mask_all>:
ffffffff80005760:	f3 0f 1e fa          	endbr64
ffffffff80005764:	48 83 ec 08          	sub    $0x8,%rsp
ffffffff80005768:	be ff 00 00 00       	mov    $0xff,%esi
ffffffff8000576d:	bf 21 00 00 00       	mov    $0x21,%edi
ffffffff80005772:	e8 b9 06 00 00       	call   ffffffff80005e30 <outb>
ffffffff80005777:	be ff 00 00 00       	mov    $0xff,%esi
ffffffff8000577c:	bf a1 00 00 00       	mov    $0xa1,%edi
ffffffff80005781:	48 83 c4 08          	add    $0x8,%rsp
ffffffff80005785:	e9 a6 06 00 00       	jmp    ffffffff80005e30 <outb>
ffffffff8000578a:	66 0f 1f 44 00 00    	nopw   0x0(%rax,%rax,1)

ffffffff80005790 <pic_unmask_irq>:
ffffffff80005790:	f3 0f 1e fa          	endbr64
ffffffff80005794:	55                   	push   %rbp
ffffffff80005795:	53                   	push   %rbx
ffffffff80005796:	48 83 ec 08          	sub    $0x8,%rsp
ffffffff8000579a:	40 80 ff 07          	cmp    $0x7,%dil
ffffffff8000579e:	76 28                	jbe    ffffffff800057c8 <pic_unmask_irq+0x38>
ffffffff800057a0:	8d 6f f8             	lea    -0x8(%rdi),%ebp
ffffffff800057a3:	bb a1 00 00 00       	mov    $0xa1,%ebx
ffffffff800057a8:	89 df                	mov    %ebx,%edi
ffffffff800057aa:	e8 71 06 00 00       	call   ffffffff80005e20 <inb>
ffffffff800057af:	48 83 c4 08          	add    $0x8,%rsp
ffffffff800057b3:	89 df                	mov    %ebx,%edi
ffffffff800057b5:	0f b3 e8             	btr    %ebp,%eax
ffffffff800057b8:	5b                   	pop    %rbx
ffffffff800057b9:	5d                   	pop    %rbp
ffffffff800057ba:	0f b6 f0             	movzbl %al,%esi
ffffffff800057bd:	e9 6e 06 00 00       	jmp    ffffffff80005e30 <outb>
ffffffff800057c2:	66 0f 1f 44 00 00    	nopw   0x0(%rax,%rax,1)
ffffffff800057c8:	89 fd                	mov    %edi,%ebp
ffffffff800057ca:	bb 21 00 00 00       	mov    $0x21,%ebx
ffffffff800057cf:	eb d7                	jmp    ffffffff800057a8 <pic_unmask_irq+0x18>
ffffffff800057d1:	66 2e 0f 1f 84 00 00 	cs nopw 0x0(%rax,%rax,1)
ffffffff800057d8:	00 00 00 
ffffffff800057db:	0f 1f 44 00 00       	nopl   0x0(%rax,%rax,1)

ffffffff800057e0 <serial_init>:
ffffffff800057e0:	f3 0f 1e fa          	endbr64
ffffffff800057e4:	31 ff                	xor    %edi,%edi
ffffffff800057e6:	41 b8 f9 03 00 00    	mov    $0x3f9,%r8d
ffffffff800057ec:	89 f8                	mov    %edi,%eax
ffffffff800057ee:	44 89 c2             	mov    %r8d,%edx
ffffffff800057f1:	ee                   	out    %al,(%dx)
ffffffff800057f2:	be fb 03 00 00       	mov    $0x3fb,%esi
ffffffff800057f7:	b8 80 ff ff ff       	mov    $0xffffff80,%eax
ffffffff800057fc:	89 f2                	mov    %esi,%edx
ffffffff800057fe:	ee                   	out    %al,(%dx)
ffffffff800057ff:	b9 03 00 00 00       	mov    $0x3,%ecx
ffffffff80005804:	ba f8 03 00 00       	mov    $0x3f8,%edx
ffffffff80005809:	89 c8                	mov    %ecx,%eax
ffffffff8000580b:	ee                   	out    %al,(%dx)
ffffffff8000580c:	89 f8                	mov    %edi,%eax
ffffffff8000580e:	44 89 c2             	mov    %r8d,%edx
ffffffff80005811:	ee                   	out    %al,(%dx)
ffffffff80005812:	89 c8                	mov    %ecx,%eax
ffffffff80005814:	89 f2                	mov    %esi,%edx
ffffffff80005816:	ee                   	out    %al,(%dx)
ffffffff80005817:	b8 c7 ff ff ff       	mov    $0xffffffc7,%eax
ffffffff8000581c:	ba fa 03 00 00       	mov    $0x3fa,%edx
ffffffff80005821:	ee                   	out    %al,(%dx)
ffffffff80005822:	b8 0b 00 00 00       	mov    $0xb,%eax
ffffffff80005827:	ba fc 03 00 00       	mov    $0x3fc,%edx
ffffffff8000582c:	ee                   	out    %al,(%dx)
ffffffff8000582d:	c3                   	ret
ffffffff8000582e:	66 90                	xchg   %ax,%ax

ffffffff80005830 <serial_write_char>:
ffffffff80005830:	f3 0f 1e fa          	endbr64
ffffffff80005834:	89 f9                	mov    %edi,%ecx
ffffffff80005836:	40 80 ff 0a          	cmp    $0xa,%dil
ffffffff8000583a:	74 0c                	je     ffffffff80005848 <serial_write_char+0x18>
ffffffff8000583c:	ba f8 03 00 00       	mov    $0x3f8,%edx
ffffffff80005841:	89 c8                	mov    %ecx,%eax
ffffffff80005843:	ee                   	out    %al,(%dx)
ffffffff80005844:	c3                   	ret
ffffffff80005845:	0f 1f 00             	nopl   (%rax)
ffffffff80005848:	b8 0d 00 00 00       	mov    $0xd,%eax
ffffffff8000584d:	ba f8 03 00 00       	mov    $0x3f8,%edx
ffffffff80005852:	ee                   	out    %al,(%dx)
ffffffff80005853:	eb e7                	jmp    ffffffff8000583c <serial_write_char+0xc>
ffffffff80005855:	66 66 2e 0f 1f 84 00 	data16 cs nopw 0x0(%rax,%rax,1)
ffffffff8000585c:	00 00 00 00 

ffffffff80005860 <serial_write>:
ffffffff80005860:	f3 0f 1e fa          	endbr64
ffffffff80005864:	0f b6 0f             	movzbl (%rdi),%ecx
ffffffff80005867:	84 c9                	test   %cl,%cl
ffffffff80005869:	74 35                	je     ffffffff800058a0 <serial_write+0x40>
ffffffff8000586b:	be 0d 00 00 00       	mov    $0xd,%esi
ffffffff80005870:	ba f8 03 00 00       	mov    $0x3f8,%edx
ffffffff80005875:	eb 13                	jmp    ffffffff8000588a <serial_write+0x2a>
ffffffff80005877:	66 0f 1f 84 00 00 00 	nopw   0x0(%rax,%rax,1)
ffffffff8000587e:	00 00 
ffffffff80005880:	89 c8                	mov    %ecx,%eax
ffffffff80005882:	ee                   	out    %al,(%dx)
ffffffff80005883:	0f b6 0f             	movzbl (%rdi),%ecx
ffffffff80005886:	84 c9                	test   %cl,%cl
ffffffff80005888:	74 16                	je     ffffffff800058a0 <serial_write+0x40>
ffffffff8000588a:	48 83 c7 01          	add    $0x1,%rdi
ffffffff8000588e:	80 f9 0a             	cmp    $0xa,%cl
ffffffff80005891:	75 ed                	jne    ffffffff80005880 <serial_write+0x20>
ffffffff80005893:	89 f0                	mov    %esi,%eax
ffffffff80005895:	ee                   	out    %al,(%dx)
ffffffff80005896:	eb e8                	jmp    ffffffff80005880 <serial_write+0x20>
ffffffff80005898:	0f 1f 84 00 00 00 00 	nopl   0x0(%rax,%rax,1)
ffffffff8000589f:	00 
ffffffff800058a0:	c3                   	ret
ffffffff800058a1:	66 66 2e 0f 1f 84 00 	data16 cs nopw 0x0(%rax,%rax,1)
ffffffff800058a8:	00 00 00 00 
ffffffff800058ac:	0f 1f 40 00          	nopl   0x0(%rax)

ffffffff800058b0 <serial_write_line>:
ffffffff800058b0:	f3 0f 1e fa          	endbr64
ffffffff800058b4:	0f b6 0f             	movzbl (%rdi),%ecx
ffffffff800058b7:	84 c9                	test   %cl,%cl
ffffffff800058b9:	74 35                	je     ffffffff800058f0 <serial_write_line+0x40>
ffffffff800058bb:	be 0d 00 00 00       	mov    $0xd,%esi
ffffffff800058c0:	ba f8 03 00 00       	mov    $0x3f8,%edx
ffffffff800058c5:	eb 13                	jmp    ffffffff800058da <serial_write_line+0x2a>
ffffffff800058c7:	66 0f 1f 84 00 00 00 	nopw   0x0(%rax,%rax,1)
ffffffff800058ce:	00 00 
ffffffff800058d0:	89 c8                	mov    %ecx,%eax
ffffffff800058d2:	ee                   	out    %al,(%dx)
ffffffff800058d3:	0f b6 0f             	movzbl (%rdi),%ecx
ffffffff800058d6:	84 c9                	test   %cl,%cl
ffffffff800058d8:	74 16                	je     ffffffff800058f0 <serial_write_line+0x40>
ffffffff800058da:	48 83 c7 01          	add    $0x1,%rdi
ffffffff800058de:	80 f9 0a             	cmp    $0xa,%cl
ffffffff800058e1:	75 ed                	jne    ffffffff800058d0 <serial_write_line+0x20>
ffffffff800058e3:	89 f0                	mov    %esi,%eax
ffffffff800058e5:	ee                   	out    %al,(%dx)
ffffffff800058e6:	eb e8                	jmp    ffffffff800058d0 <serial_write_line+0x20>
ffffffff800058e8:	0f 1f 84 00 00 00 00 	nopl   0x0(%rax,%rax,1)
ffffffff800058ef:	00 
ffffffff800058f0:	ba f8 03 00 00       	mov    $0x3f8,%edx
ffffffff800058f5:	b8 0d 00 00 00       	mov    $0xd,%eax
ffffffff800058fa:	ee                   	out    %al,(%dx)
ffffffff800058fb:	b8 0a 00 00 00       	mov    $0xa,%eax
ffffffff80005900:	ee                   	out    %al,(%dx)
ffffffff80005901:	c3                   	ret
ffffffff80005902:	66 66 2e 0f 1f 84 00 	data16 cs nopw 0x0(%rax,%rax,1)
ffffffff80005909:	00 00 00 00 
ffffffff8000590d:	0f 1f 00             	nopl   (%rax)

ffffffff80005910 <serial_write_ulong>:
ffffffff80005910:	f3 0f 1e fa          	endbr64
ffffffff80005914:	48 85 ff             	test   %rdi,%rdi
ffffffff80005917:	0f 84 8b 00 00 00    	je     ffffffff800059a8 <serial_write_ulong+0x98>
ffffffff8000591d:	49 b8 cd cc cc cc cc 	movabs $0xcccccccccccccccd,%r8
ffffffff80005924:	cc cc cc 
ffffffff80005927:	48 83 ec 18          	sub    $0x18,%rsp
ffffffff8000592b:	31 c9                	xor    %ecx,%ecx
ffffffff8000592d:	0f 1f 00             	nopl   (%rax)
ffffffff80005930:	48 89 f8             	mov    %rdi,%rax
ffffffff80005933:	49 f7 e0             	mul    %r8
ffffffff80005936:	48 89 f8             	mov    %rdi,%rax
ffffffff80005939:	48 c1 ea 03          	shr    $0x3,%rdx
ffffffff8000593d:	48 8d 34 92          	lea    (%rdx,%rdx,4),%rsi
ffffffff80005941:	48 01 f6             	add    %rsi,%rsi
ffffffff80005944:	48 29 f0             	sub    %rsi,%rax
ffffffff80005947:	83 c0 30             	add    $0x30,%eax
ffffffff8000594a:	88 04 0c             	mov    %al,(%rsp,%rcx,1)
ffffffff8000594d:	48 89 f8             	mov    %rdi,%rax
ffffffff80005950:	48 89 d7             	mov    %rdx,%rdi
ffffffff80005953:	48 89 ca             	mov    %rcx,%rdx
ffffffff80005956:	48 83 c1 01          	add    $0x1,%rcx
ffffffff8000595a:	48 83 f8 09          	cmp    $0x9,%rax
ffffffff8000595e:	77 d0                	ja     ffffffff80005930 <serial_write_ulong+0x20>
ffffffff80005960:	48 63 c2             	movslq %edx,%rax
ffffffff80005963:	41 b8 0d 00 00 00    	mov    $0xd,%r8d
ffffffff80005969:	48 8d 7c 04 ff       	lea    -0x1(%rsp,%rax,1),%rdi
ffffffff8000596e:	48 8d 0c 04          	lea    (%rsp,%rax,1),%rcx
ffffffff80005972:	48 29 d7             	sub    %rdx,%rdi
ffffffff80005975:	ba f8 03 00 00       	mov    $0x3f8,%edx
ffffffff8000597a:	eb 10                	jmp    ffffffff8000598c <serial_write_ulong+0x7c>
ffffffff8000597c:	0f 1f 40 00          	nopl   0x0(%rax)
ffffffff80005980:	89 f0                	mov    %esi,%eax
ffffffff80005982:	ee                   	out    %al,(%dx)
ffffffff80005983:	48 83 e9 01          	sub    $0x1,%rcx
ffffffff80005987:	48 39 cf             	cmp    %rcx,%rdi
ffffffff8000598a:	74 14                	je     ffffffff800059a0 <serial_write_ulong+0x90>
ffffffff8000598c:	0f b6 31             	movzbl (%rcx),%esi
ffffffff8000598f:	40 80 fe 0a          	cmp    $0xa,%sil
ffffffff80005993:	75 eb                	jne    ffffffff80005980 <serial_write_ulong+0x70>
ffffffff80005995:	44 89 c0             	mov    %r8d,%eax
ffffffff80005998:	ee                   	out    %al,(%dx)
ffffffff80005999:	eb e5                	jmp    ffffffff80005980 <serial_write_ulong+0x70>
ffffffff8000599b:	0f 1f 44 00 00       	nopl   0x0(%rax,%rax,1)
ffffffff800059a0:	48 83 c4 18          	add    $0x18,%rsp
ffffffff800059a4:	c3                   	ret
ffffffff800059a5:	0f 1f 00             	nopl   (%rax)
ffffffff800059a8:	b8 30 00 00 00       	mov    $0x30,%eax
ffffffff800059ad:	ba f8 03 00 00       	mov    $0x3f8,%edx
ffffffff800059b2:	ee                   	out    %al,(%dx)
ffffffff800059b3:	c3                   	ret
ffffffff800059b4:	66 66 2e 0f 1f 84 00 	data16 cs nopw 0x0(%rax,%rax,1)
ffffffff800059bb:	00 00 00 00 
ffffffff800059bf:	90                   	nop

ffffffff800059c0 <serial_write_hex8>:
ffffffff800059c0:	f3 0f 1e fa          	endbr64
ffffffff800059c4:	44 0f b6 c7          	movzbl %dil,%r8d
ffffffff800059c8:	b9 30 00 00 00       	mov    $0x30,%ecx
ffffffff800059cd:	ba f8 03 00 00       	mov    $0x3f8,%edx
ffffffff800059d2:	48 c7 c6 55 69 00 80 	mov    $0xffffffff80006955,%rsi
ffffffff800059d9:	41 b9 0d 00 00 00    	mov    $0xd,%r9d
ffffffff800059df:	eb 11                	jmp    ffffffff800059f2 <serial_write_hex8+0x32>
ffffffff800059e1:	0f 1f 80 00 00 00 00 	nopl   0x0(%rax)
ffffffff800059e8:	89 c8                	mov    %ecx,%eax
ffffffff800059ea:	ee                   	out    %al,(%dx)
ffffffff800059eb:	0f b6 0e             	movzbl (%rsi),%ecx
ffffffff800059ee:	84 c9                	test   %cl,%cl
ffffffff800059f0:	74 16                	je     ffffffff80005a08 <serial_write_hex8+0x48>
ffffffff800059f2:	48 83 c6 01          	add    $0x1,%rsi
ffffffff800059f6:	80 f9 0a             	cmp    $0xa,%cl
ffffffff800059f9:	75 ed                	jne    ffffffff800059e8 <serial_write_hex8+0x28>
ffffffff800059fb:	44 89 c8             	mov    %r9d,%eax
ffffffff800059fe:	ee                   	out    %al,(%dx)
ffffffff800059ff:	eb e7                	jmp    ffffffff800059e8 <serial_write_hex8+0x28>
ffffffff80005a01:	0f 1f 80 00 00 00 00 	nopl   0x0(%rax)
ffffffff80005a08:	49 c1 e8 04          	shr    $0x4,%r8
ffffffff80005a0c:	41 0f b6 88 5f 6a 00 	movzbl -0x7fff95a1(%r8),%ecx
ffffffff80005a13:	80 
ffffffff80005a14:	80 f9 0a             	cmp    $0xa,%cl
ffffffff80005a17:	74 27                	je     ffffffff80005a40 <serial_write_hex8+0x80>
ffffffff80005a19:	ba f8 03 00 00       	mov    $0x3f8,%edx
ffffffff80005a1e:	89 c8                	mov    %ecx,%eax
ffffffff80005a20:	ee                   	out    %al,(%dx)
ffffffff80005a21:	83 e7 0f             	and    $0xf,%edi
ffffffff80005a24:	0f b6 8f 5f 6a 00 80 	movzbl -0x7fff95a1(%rdi),%ecx
ffffffff80005a2b:	80 f9 0a             	cmp    $0xa,%cl
ffffffff80005a2e:	74 20                	je     ffffffff80005a50 <serial_write_hex8+0x90>
ffffffff80005a30:	ba f8 03 00 00       	mov    $0x3f8,%edx
ffffffff80005a35:	89 c8                	mov    %ecx,%eax
ffffffff80005a37:	ee                   	out    %al,(%dx)
ffffffff80005a38:	c3                   	ret
ffffffff80005a39:	0f 1f 80 00 00 00 00 	nopl   0x0(%rax)
ffffffff80005a40:	b8 0d 00 00 00       	mov    $0xd,%eax
ffffffff80005a45:	ee                   	out    %al,(%dx)
ffffffff80005a46:	eb d1                	jmp    ffffffff80005a19 <serial_write_hex8+0x59>
ffffffff80005a48:	0f 1f 84 00 00 00 00 	nopl   0x0(%rax,%rax,1)
ffffffff80005a4f:	00 
ffffffff80005a50:	b8 0d 00 00 00       	mov    $0xd,%eax
ffffffff80005a55:	ee                   	out    %al,(%dx)
ffffffff80005a56:	eb d8                	jmp    ffffffff80005a30 <serial_write_hex8+0x70>
ffffffff80005a58:	0f 1f 84 00 00 00 00 	nopl   0x0(%rax,%rax,1)
ffffffff80005a5f:	00 

ffffffff80005a60 <serial_write_hex16>:
ffffffff80005a60:	f3 0f 1e fa          	endbr64
ffffffff80005a64:	0f b7 ff             	movzwl %di,%edi
ffffffff80005a67:	b9 30 00 00 00       	mov    $0x30,%ecx
ffffffff80005a6c:	ba f8 03 00 00       	mov    $0x3f8,%edx
ffffffff80005a71:	48 c7 c6 55 69 00 80 	mov    $0xffffffff80006955,%rsi
ffffffff80005a78:	41 b8 0d 00 00 00    	mov    $0xd,%r8d
ffffffff80005a7e:	eb 0a                	jmp    ffffffff80005a8a <serial_write_hex16+0x2a>
ffffffff80005a80:	89 c8                	mov    %ecx,%eax
ffffffff80005a82:	ee                   	out    %al,(%dx)
ffffffff80005a83:	0f b6 0e             	movzbl (%rsi),%ecx
ffffffff80005a86:	84 c9                	test   %cl,%cl
ffffffff80005a88:	74 16                	je     ffffffff80005aa0 <serial_write_hex16+0x40>
ffffffff80005a8a:	48 83 c6 01          	add    $0x1,%rsi
ffffffff80005a8e:	80 f9 0a             	cmp    $0xa,%cl
ffffffff80005a91:	75 ed                	jne    ffffffff80005a80 <serial_write_hex16+0x20>
ffffffff80005a93:	44 89 c0             	mov    %r8d,%eax
ffffffff80005a96:	ee                   	out    %al,(%dx)
ffffffff80005a97:	eb e7                	jmp    ffffffff80005a80 <serial_write_hex16+0x20>
ffffffff80005a99:	0f 1f 80 00 00 00 00 	nopl   0x0(%rax)
ffffffff80005aa0:	b9 0c 00 00 00       	mov    $0xc,%ecx
ffffffff80005aa5:	41 b8 0d 00 00 00    	mov    $0xd,%r8d
ffffffff80005aab:	ba f8 03 00 00       	mov    $0x3f8,%edx
ffffffff80005ab0:	eb 11                	jmp    ffffffff80005ac3 <serial_write_hex16+0x63>
ffffffff80005ab2:	66 0f 1f 44 00 00    	nopw   0x0(%rax,%rax,1)
ffffffff80005ab8:	89 f0                	mov    %esi,%eax
ffffffff80005aba:	ee                   	out    %al,(%dx)
ffffffff80005abb:	83 e9 04             	sub    $0x4,%ecx
ffffffff80005abe:	83 f9 fc             	cmp    $0xfffffffc,%ecx
ffffffff80005ac1:	74 1d                	je     ffffffff80005ae0 <serial_write_hex16+0x80>
ffffffff80005ac3:	48 89 f8             	mov    %rdi,%rax
ffffffff80005ac6:	48 d3 e8             	shr    %cl,%rax
ffffffff80005ac9:	83 e0 0f             	and    $0xf,%eax
ffffffff80005acc:	0f b6 b0 5f 6a 00 80 	movzbl -0x7fff95a1(%rax),%esi
ffffffff80005ad3:	40 80 fe 0a          	cmp    $0xa,%sil
ffffffff80005ad7:	75 df                	jne    ffffffff80005ab8 <serial_write_hex16+0x58>
ffffffff80005ad9:	44 89 c0             	mov    %r8d,%eax
ffffffff80005adc:	ee                   	out    %al,(%dx)
ffffffff80005add:	eb d9                	jmp    ffffffff80005ab8 <serial_write_hex16+0x58>
ffffffff80005adf:	90                   	nop
ffffffff80005ae0:	c3                   	ret
ffffffff80005ae1:	66 66 2e 0f 1f 84 00 	data16 cs nopw 0x0(%rax,%rax,1)
ffffffff80005ae8:	00 00 00 00 
ffffffff80005aec:	0f 1f 40 00          	nopl   0x0(%rax)

ffffffff80005af0 <serial_write_hex32>:
ffffffff80005af0:	f3 0f 1e fa          	endbr64
ffffffff80005af4:	89 ff                	mov    %edi,%edi
ffffffff80005af6:	b9 30 00 00 00       	mov    $0x30,%ecx
ffffffff80005afb:	ba f8 03 00 00       	mov    $0x3f8,%edx
ffffffff80005b00:	48 c7 c6 55 69 00 80 	mov    $0xffffffff80006955,%rsi
ffffffff80005b07:	41 b8 0d 00 00 00    	mov    $0xd,%r8d
ffffffff80005b0d:	eb 0b                	jmp    ffffffff80005b1a <serial_write_hex32+0x2a>
ffffffff80005b0f:	90                   	nop
ffffffff80005b10:	89 c8                	mov    %ecx,%eax
ffffffff80005b12:	ee                   	out    %al,(%dx)
ffffffff80005b13:	0f b6 0e             	movzbl (%rsi),%ecx
ffffffff80005b16:	84 c9                	test   %cl,%cl
ffffffff80005b18:	74 16                	je     ffffffff80005b30 <serial_write_hex32+0x40>
ffffffff80005b1a:	48 83 c6 01          	add    $0x1,%rsi
ffffffff80005b1e:	80 f9 0a             	cmp    $0xa,%cl
ffffffff80005b21:	75 ed                	jne    ffffffff80005b10 <serial_write_hex32+0x20>
ffffffff80005b23:	44 89 c0             	mov    %r8d,%eax
ffffffff80005b26:	ee                   	out    %al,(%dx)
ffffffff80005b27:	eb e7                	jmp    ffffffff80005b10 <serial_write_hex32+0x20>
ffffffff80005b29:	0f 1f 80 00 00 00 00 	nopl   0x0(%rax)
ffffffff80005b30:	b9 1c 00 00 00       	mov    $0x1c,%ecx
ffffffff80005b35:	41 b8 0d 00 00 00    	mov    $0xd,%r8d
ffffffff80005b3b:	ba f8 03 00 00       	mov    $0x3f8,%edx
ffffffff80005b40:	eb 11                	jmp    ffffffff80005b53 <serial_write_hex32+0x63>
ffffffff80005b42:	66 0f 1f 44 00 00    	nopw   0x0(%rax,%rax,1)
ffffffff80005b48:	89 f0                	mov    %esi,%eax
ffffffff80005b4a:	ee                   	out    %al,(%dx)
ffffffff80005b4b:	83 e9 04             	sub    $0x4,%ecx
ffffffff80005b4e:	83 f9 fc             	cmp    $0xfffffffc,%ecx
ffffffff80005b51:	74 1d                	je     ffffffff80005b70 <serial_write_hex32+0x80>
ffffffff80005b53:	48 89 f8             	mov    %rdi,%rax
ffffffff80005b56:	48 d3 e8             	shr    %cl,%rax
ffffffff80005b59:	83 e0 0f             	and    $0xf,%eax
ffffffff80005b5c:	0f b6 b0 5f 6a 00 80 	movzbl -0x7fff95a1(%rax),%esi
ffffffff80005b63:	40 80 fe 0a          	cmp    $0xa,%sil
ffffffff80005b67:	75 df                	jne    ffffffff80005b48 <serial_write_hex32+0x58>
ffffffff80005b69:	44 89 c0             	mov    %r8d,%eax
ffffffff80005b6c:	ee                   	out    %al,(%dx)
ffffffff80005b6d:	eb d9                	jmp    ffffffff80005b48 <serial_write_hex32+0x58>
ffffffff80005b6f:	90                   	nop
ffffffff80005b70:	c3                   	ret
ffffffff80005b71:	66 66 2e 0f 1f 84 00 	data16 cs nopw 0x0(%rax,%rax,1)
ffffffff80005b78:	00 00 00 00 
ffffffff80005b7c:	0f 1f 40 00          	nopl   0x0(%rax)

ffffffff80005b80 <serial_write_hex>:
ffffffff80005b80:	f3 0f 1e fa          	endbr64
ffffffff80005b84:	b9 30 00 00 00       	mov    $0x30,%ecx
ffffffff80005b89:	41 b8 0d 00 00 00    	mov    $0xd,%r8d
ffffffff80005b8f:	ba f8 03 00 00       	mov    $0x3f8,%edx
ffffffff80005b94:	48 c7 c6 55 69 00 80 	mov    $0xffffffff80006955,%rsi
ffffffff80005b9b:	eb 0d                	jmp    ffffffff80005baa <serial_write_hex+0x2a>
ffffffff80005b9d:	0f 1f 00             	nopl   (%rax)
ffffffff80005ba0:	89 c8                	mov    %ecx,%eax
ffffffff80005ba2:	ee                   	out    %al,(%dx)
ffffffff80005ba3:	0f b6 0e             	movzbl (%rsi),%ecx
ffffffff80005ba6:	84 c9                	test   %cl,%cl
ffffffff80005ba8:	74 16                	je     ffffffff80005bc0 <serial_write_hex+0x40>
ffffffff80005baa:	48 83 c6 01          	add    $0x1,%rsi
ffffffff80005bae:	80 f9 0a             	cmp    $0xa,%cl
ffffffff80005bb1:	75 ed                	jne    ffffffff80005ba0 <serial_write_hex+0x20>
ffffffff80005bb3:	44 89 c0             	mov    %r8d,%eax
ffffffff80005bb6:	ee                   	out    %al,(%dx)
ffffffff80005bb7:	eb e7                	jmp    ffffffff80005ba0 <serial_write_hex+0x20>
ffffffff80005bb9:	0f 1f 80 00 00 00 00 	nopl   0x0(%rax)
ffffffff80005bc0:	b9 3c 00 00 00       	mov    $0x3c,%ecx
ffffffff80005bc5:	41 b8 0d 00 00 00    	mov    $0xd,%r8d
ffffffff80005bcb:	ba f8 03 00 00       	mov    $0x3f8,%edx
ffffffff80005bd0:	eb 11                	jmp    ffffffff80005be3 <serial_write_hex+0x63>
ffffffff80005bd2:	66 0f 1f 44 00 00    	nopw   0x0(%rax,%rax,1)
ffffffff80005bd8:	89 f0                	mov    %esi,%eax
ffffffff80005bda:	ee                   	out    %al,(%dx)
ffffffff80005bdb:	83 e9 04             	sub    $0x4,%ecx
ffffffff80005bde:	83 f9 fc             	cmp    $0xfffffffc,%ecx
ffffffff80005be1:	74 1d                	je     ffffffff80005c00 <serial_write_hex+0x80>
ffffffff80005be3:	48 89 f8             	mov    %rdi,%rax
ffffffff80005be6:	48 d3 e8             	shr    %cl,%rax
ffffffff80005be9:	83 e0 0f             	and    $0xf,%eax
ffffffff80005bec:	0f b6 b0 5f 6a 00 80 	movzbl -0x7fff95a1(%rax),%esi
ffffffff80005bf3:	40 80 fe 0a          	cmp    $0xa,%sil
ffffffff80005bf7:	75 df                	jne    ffffffff80005bd8 <serial_write_hex+0x58>
ffffffff80005bf9:	44 89 c0             	mov    %r8d,%eax
ffffffff80005bfc:	ee                   	out    %al,(%dx)
ffffffff80005bfd:	eb d9                	jmp    ffffffff80005bd8 <serial_write_hex+0x58>
ffffffff80005bff:	90                   	nop
ffffffff80005c00:	c3                   	ret
ffffffff80005c01:	66 66 2e 0f 1f 84 00 	data16 cs nopw 0x0(%rax,%rax,1)
ffffffff80005c08:	00 00 00 00 
ffffffff80005c0c:	0f 1f 40 00          	nopl   0x0(%rax)

ffffffff80005c10 <serial_write_bin8>:
ffffffff80005c10:	f3 0f 1e fa          	endbr64
ffffffff80005c14:	40 0f b6 ff          	movzbl %dil,%edi
ffffffff80005c18:	b9 30 00 00 00       	mov    $0x30,%ecx
ffffffff80005c1d:	ba f8 03 00 00       	mov    $0x3f8,%edx
ffffffff80005c22:	48 c7 c6 4c 6f 00 80 	mov    $0xffffffff80006f4c,%rsi
ffffffff80005c29:	41 b8 0d 00 00 00    	mov    $0xd,%r8d
ffffffff80005c2f:	eb 11                	jmp    ffffffff80005c42 <serial_write_bin8+0x32>
ffffffff80005c31:	0f 1f 80 00 00 00 00 	nopl   0x0(%rax)
ffffffff80005c38:	89 c8                	mov    %ecx,%eax
ffffffff80005c3a:	ee                   	out    %al,(%dx)
ffffffff80005c3b:	0f b6 0e             	movzbl (%rsi),%ecx
ffffffff80005c3e:	84 c9                	test   %cl,%cl
ffffffff80005c40:	74 16                	je     ffffffff80005c58 <serial_write_bin8+0x48>
ffffffff80005c42:	48 83 c6 01          	add    $0x1,%rsi
ffffffff80005c46:	80 f9 0a             	cmp    $0xa,%cl
ffffffff80005c49:	75 ed                	jne    ffffffff80005c38 <serial_write_bin8+0x28>
ffffffff80005c4b:	44 89 c0             	mov    %r8d,%eax
ffffffff80005c4e:	ee                   	out    %al,(%dx)
ffffffff80005c4f:	eb e7                	jmp    ffffffff80005c38 <serial_write_bin8+0x28>
ffffffff80005c51:	0f 1f 80 00 00 00 00 	nopl   0x0(%rax)
ffffffff80005c58:	48 89 f8             	mov    %rdi,%rax
ffffffff80005c5b:	48 c1 e8 07          	shr    $0x7,%rax
ffffffff80005c5f:	48 83 c0 30          	add    $0x30,%rax
ffffffff80005c63:	ee                   	out    %al,(%dx)
ffffffff80005c64:	48 89 fe             	mov    %rdi,%rsi
ffffffff80005c67:	b9 07 00 00 00       	mov    $0x7,%ecx
ffffffff80005c6c:	ba f8 03 00 00       	mov    $0x3f8,%edx
ffffffff80005c71:	41 b8 20 00 00 00    	mov    $0x20,%r8d
ffffffff80005c77:	48 c1 ee 03          	shr    $0x3,%rsi
ffffffff80005c7b:	83 e6 01             	and    $0x1,%esi
ffffffff80005c7e:	48 83 c6 30          	add    $0x30,%rsi
ffffffff80005c82:	f6 c1 03             	test   $0x3,%cl
ffffffff80005c85:	75 11                	jne    ffffffff80005c98 <serial_write_bin8+0x88>
ffffffff80005c87:	44 89 c0             	mov    %r8d,%eax
ffffffff80005c8a:	ee                   	out    %al,(%dx)
ffffffff80005c8b:	89 f0                	mov    %esi,%eax
ffffffff80005c8d:	ee                   	out    %al,(%dx)
ffffffff80005c8e:	b9 03 00 00 00       	mov    $0x3,%ecx
ffffffff80005c93:	f6 c1 03             	test   $0x3,%cl
ffffffff80005c96:	74 ef                	je     ffffffff80005c87 <serial_write_bin8+0x77>
ffffffff80005c98:	83 e9 01             	sub    $0x1,%ecx
ffffffff80005c9b:	48 89 f8             	mov    %rdi,%rax
ffffffff80005c9e:	48 d3 e8             	shr    %cl,%rax
ffffffff80005ca1:	83 e0 01             	and    $0x1,%eax
ffffffff80005ca4:	48 83 c0 30          	add    $0x30,%rax
ffffffff80005ca8:	ee                   	out    %al,(%dx)
ffffffff80005ca9:	85 c9                	test   %ecx,%ecx
ffffffff80005cab:	75 d5                	jne    ffffffff80005c82 <serial_write_bin8+0x72>
ffffffff80005cad:	c3                   	ret
ffffffff80005cae:	66 90                	xchg   %ax,%ax

ffffffff80005cb0 <ata_init>:
ffffffff80005cb0:	f3 0f 1e fa          	endbr64
ffffffff80005cb4:	48 83 ec 08          	sub    $0x8,%rsp
ffffffff80005cb8:	bf f7 01 00 00       	mov    $0x1f7,%edi
ffffffff80005cbd:	e8 5e 01 00 00       	call   ffffffff80005e20 <inb>
ffffffff80005cc2:	3c ff                	cmp    $0xff,%al
ffffffff80005cc4:	74 1a                	je     ffffffff80005ce0 <ata_init+0x30>
ffffffff80005cc6:	48 c7 c7 66 6f 00 80 	mov    $0xffffffff80006f66,%rdi
ffffffff80005ccd:	e8 de fb ff ff       	call   ffffffff800058b0 <serial_write_line>
ffffffff80005cd2:	b8 01 00 00 00       	mov    $0x1,%eax
ffffffff80005cd7:	48 83 c4 08          	add    $0x8,%rsp
ffffffff80005cdb:	c3                   	ret
ffffffff80005cdc:	0f 1f 40 00          	nopl   0x0(%rax)
ffffffff80005ce0:	48 c7 c7 4f 6f 00 80 	mov    $0xffffffff80006f4f,%rdi
ffffffff80005ce7:	e8 c4 fb ff ff       	call   ffffffff800058b0 <serial_write_line>
ffffffff80005cec:	31 c0                	xor    %eax,%eax
ffffffff80005cee:	48 83 c4 08          	add    $0x8,%rsp
ffffffff80005cf2:	c3                   	ret
ffffffff80005cf3:	66 66 2e 0f 1f 84 00 	data16 cs nopw 0x0(%rax,%rax,1)
ffffffff80005cfa:	00 00 00 00 
ffffffff80005cfe:	66 90                	xchg   %ax,%ax

ffffffff80005d00 <ata_read>:
ffffffff80005d00:	f3 0f 1e fa          	endbr64
ffffffff80005d04:	41 55                	push   %r13
ffffffff80005d06:	49 89 d5             	mov    %rdx,%r13
ffffffff80005d09:	41 54                	push   %r12
ffffffff80005d0b:	41 89 f4             	mov    %esi,%r12d
ffffffff80005d0e:	89 fe                	mov    %edi,%esi
ffffffff80005d10:	55                   	push   %rbp
ffffffff80005d11:	c1 ee 18             	shr    $0x18,%esi
ffffffff80005d14:	45 0f b6 e4          	movzbl %r12b,%r12d
ffffffff80005d18:	53                   	push   %rbx
ffffffff80005d19:	83 e6 0f             	and    $0xf,%esi
ffffffff80005d1c:	89 fb                	mov    %edi,%ebx
ffffffff80005d1e:	bf f6 01 00 00       	mov    $0x1f6,%edi
ffffffff80005d23:	40 80 ce e0          	or     $0xe0,%sil
ffffffff80005d27:	48 83 ec 08          	sub    $0x8,%rsp
ffffffff80005d2b:	e8 00 01 00 00       	call   ffffffff80005e30 <outb>
ffffffff80005d30:	44 89 e6             	mov    %r12d,%esi
ffffffff80005d33:	bf f2 01 00 00       	mov    $0x1f2,%edi
ffffffff80005d38:	e8 f3 00 00 00       	call   ffffffff80005e30 <outb>
ffffffff80005d3d:	0f b6 f3             	movzbl %bl,%esi
ffffffff80005d40:	bf f3 01 00 00       	mov    $0x1f3,%edi
ffffffff80005d45:	e8 e6 00 00 00       	call   ffffffff80005e30 <outb>
ffffffff80005d4a:	0f b6 f7             	movzbl %bh,%esi
ffffffff80005d4d:	bf f4 01 00 00       	mov    $0x1f4,%edi
ffffffff80005d52:	e8 d9 00 00 00       	call   ffffffff80005e30 <outb>
ffffffff80005d57:	89 de                	mov    %ebx,%esi
ffffffff80005d59:	bf f5 01 00 00       	mov    $0x1f5,%edi
ffffffff80005d5e:	c1 ee 10             	shr    $0x10,%esi
ffffffff80005d61:	40 0f b6 f6          	movzbl %sil,%esi
ffffffff80005d65:	e8 c6 00 00 00       	call   ffffffff80005e30 <outb>
ffffffff80005d6a:	be 20 00 00 00       	mov    $0x20,%esi
ffffffff80005d6f:	bf f7 01 00 00       	mov    $0x1f7,%edi
ffffffff80005d74:	e8 b7 00 00 00       	call   ffffffff80005e30 <outb>
ffffffff80005d79:	45 85 e4             	test   %r12d,%r12d
ffffffff80005d7c:	0f 84 81 00 00 00    	je     ffffffff80005e03 <ata_read+0x103>
ffffffff80005d82:	41 8d 44 24 ff       	lea    -0x1(%r12),%eax
ffffffff80005d87:	49 8d ad 00 02 00 00 	lea    0x200(%r13),%rbp
ffffffff80005d8e:	48 c1 e0 09          	shl    $0x9,%rax
ffffffff80005d92:	4d 8d a4 05 00 04 00 	lea    0x400(%r13,%rax,1),%r12
ffffffff80005d99:	00 
ffffffff80005d9a:	eb 08                	jmp    ffffffff80005da4 <ata_read+0xa4>
ffffffff80005d9c:	0f 1f 40 00          	nopl   0x0(%rax)
ffffffff80005da0:	84 c0                	test   %al,%al
ffffffff80005da2:	79 20                	jns    ffffffff80005dc4 <ata_read+0xc4>
ffffffff80005da4:	bf f7 01 00 00       	mov    $0x1f7,%edi
ffffffff80005da9:	e8 72 00 00 00       	call   ffffffff80005e20 <inb>
ffffffff80005dae:	a8 01                	test   $0x1,%al
ffffffff80005db0:	74 ee                	je     ffffffff80005da0 <ata_read+0xa0>
ffffffff80005db2:	48 83 c4 08          	add    $0x8,%rsp
ffffffff80005db6:	31 c0                	xor    %eax,%eax
ffffffff80005db8:	5b                   	pop    %rbx
ffffffff80005db9:	5d                   	pop    %rbp
ffffffff80005dba:	41 5c                	pop    %r12
ffffffff80005dbc:	41 5d                	pop    %r13
ffffffff80005dbe:	c3                   	ret
ffffffff80005dbf:	90                   	nop
ffffffff80005dc0:	a8 08                	test   $0x8,%al
ffffffff80005dc2:	75 10                	jne    ffffffff80005dd4 <ata_read+0xd4>
ffffffff80005dc4:	bf f7 01 00 00       	mov    $0x1f7,%edi
ffffffff80005dc9:	e8 52 00 00 00       	call   ffffffff80005e20 <inb>
ffffffff80005dce:	a8 01                	test   $0x1,%al
ffffffff80005dd0:	74 ee                	je     ffffffff80005dc0 <ata_read+0xc0>
ffffffff80005dd2:	eb de                	jmp    ffffffff80005db2 <ata_read+0xb2>
ffffffff80005dd4:	48 8d 9d 00 fe ff ff 	lea    -0x200(%rbp),%rbx
ffffffff80005ddb:	0f 1f 44 00 00       	nopl   0x0(%rax,%rax,1)
ffffffff80005de0:	bf f0 01 00 00       	mov    $0x1f0,%edi
ffffffff80005de5:	48 83 c3 02          	add    $0x2,%rbx
ffffffff80005de9:	e8 52 00 00 00       	call   ffffffff80005e40 <inw>
ffffffff80005dee:	66 89 43 fe          	mov    %ax,-0x2(%rbx)
ffffffff80005df2:	48 39 eb             	cmp    %rbp,%rbx
ffffffff80005df5:	75 e9                	jne    ffffffff80005de0 <ata_read+0xe0>
ffffffff80005df7:	48 81 c5 00 02 00 00 	add    $0x200,%rbp
ffffffff80005dfe:	4c 39 e5             	cmp    %r12,%rbp
ffffffff80005e01:	75 a1                	jne    ffffffff80005da4 <ata_read+0xa4>
ffffffff80005e03:	48 83 c4 08          	add    $0x8,%rsp
ffffffff80005e07:	b8 01 00 00 00       	mov    $0x1,%eax
ffffffff80005e0c:	5b                   	pop    %rbx
ffffffff80005e0d:	5d                   	pop    %rbp
ffffffff80005e0e:	41 5c                	pop    %r12
ffffffff80005e10:	41 5d                	pop    %r13
ffffffff80005e12:	c3                   	ret
ffffffff80005e13:	66 2e 0f 1f 84 00 00 	cs nopw 0x0(%rax,%rax,1)
ffffffff80005e1a:	00 00 00 
ffffffff80005e1d:	0f 1f 00             	nopl   (%rax)

ffffffff80005e20 <inb>:
ffffffff80005e20:	f3 0f 1e fa          	endbr64
ffffffff80005e24:	89 fa                	mov    %edi,%edx
ffffffff80005e26:	ec                   	in     (%dx),%al
ffffffff80005e27:	c3                   	ret
ffffffff80005e28:	0f 1f 84 00 00 00 00 	nopl   0x0(%rax,%rax,1)
ffffffff80005e2f:	00 

ffffffff80005e30 <outb>:
ffffffff80005e30:	f3 0f 1e fa          	endbr64
ffffffff80005e34:	89 f0                	mov    %esi,%eax
ffffffff80005e36:	89 fa                	mov    %edi,%edx
ffffffff80005e38:	ee                   	out    %al,(%dx)
ffffffff80005e39:	c3                   	ret
ffffffff80005e3a:	66 0f 1f 44 00 00    	nopw   0x0(%rax,%rax,1)

ffffffff80005e40 <inw>:
ffffffff80005e40:	f3 0f 1e fa          	endbr64
ffffffff80005e44:	89 fa                	mov    %edi,%edx
ffffffff80005e46:	66 ed                	in     (%dx),%ax
ffffffff80005e48:	c3                   	ret
ffffffff80005e49:	0f 1f 80 00 00 00 00 	nopl   0x0(%rax)

ffffffff80005e50 <io_wait>:
ffffffff80005e50:	f3 0f 1e fa          	endbr64
ffffffff80005e54:	31 c0                	xor    %eax,%eax
ffffffff80005e56:	e6 80                	out    %al,$0x80
ffffffff80005e58:	c3                   	ret
